Certificate:
    Data:
        Version: 3 (0x2)
        Serial Number:
            d9:29:cb:9b:45:a3:bb:95
    Signature Algorithm: sha256WithRSAEncryption
        Issuer: C=US, ST=California, L=California, O=Alice CA Ltd., OU=Alice CA Ltd., CN=Alice CA Ltd./emailAddress=ca@ca_alice.com
        Validity
            Not Before: Dec 20 01:25:46 2017 GMT
            Not After : Dec 20 01:25:46 2018 GMT
        Subject: C=KR, ST=Seoul, L=Seoul, O=Seoul National University, OU=Network Convergence and Security Lab., CN=Alice Test Corporation for Simple Experiment/emailAddress=alice.carol@test.email.com
        Subject Public Key Info:
            Public Key Algorithm: rsaEncryption
                Public-Key: (4096 bit)
                Modulus:
                    00:b5:13:41:25:a4:a8:b2:42:dc:dc:3e:70:77:23:
                    df:a4:e3:25:a7:20:a8:aa:9d:10:b3:c0:90:45:cc:
                    22:f6:d1:64:8c:96:cb:41:1f:4c:0e:c8:83:5b:70:
                    3a:d3:3d:b6:d9:85:7e:45:04:3f:bf:71:fe:48:b3:
                    ed:7d:d3:ce:61:c1:3c:e5:b1:e7:ba:e0:1a:8b:6b:
                    77:5f:39:26:73:9b:98:ec:4a:d1:55:8d:e3:65:97:
                    c6:bf:a2:3e:57:3f:7e:9f:b8:94:bf:6f:e5:70:d4:
                    7f:77:e4:9a:4d:a0:4e:8e:9c:e1:b9:47:f9:51:52:
                    b1:2a:36:0f:a9:f5:ce:71:b8:aa:fe:d2:06:66:69:
                    ec:0c:2f:50:65:a2:d0:f3:91:eb:af:be:50:eb:14:
                    6b:b5:2e:c7:db:0c:26:22:2e:aa:f6:ff:1b:1c:f7:
                    6e:b6:8a:c4:80:7a:28:04:ef:0f:8d:b0:2d:c9:f1:
                    43:55:6a:51:4e:c8:1e:1f:b4:0e:7f:c4:9a:1e:29:
                    54:56:c5:89:b6:83:0b:b6:6e:70:ad:d4:69:dd:49:
                    36:0c:7a:5c:01:fa:99:e9:82:19:4c:69:77:26:c3:
                    68:35:7a:d5:a6:21:a1:ca:b6:3e:6d:1d:d0:a8:08:
                    11:15:60:49:5d:2f:08:e3:6b:2d:b7:86:07:1a:73:
                    c0:99:9e:e1:a1:1a:dc:6a:80:04:61:cc:68:44:be:
                    35:22:ed:3e:5d:e7:00:97:6f:3f:19:5e:70:3b:29:
                    c7:ce:52:60:a1:ad:78:e0:84:fb:09:75:9f:dd:c0:
                    9b:bd:6d:ff:80:07:59:f4:07:9f:80:73:d4:24:41:
                    4b:7e:df:e1:9a:3d:99:0a:8c:7a:4e:05:03:5e:cd:
                    c1:a4:51:52:f1:be:d0:3a:45:ad:3d:52:6c:1e:2e:
                    b4:01:1f:ad:cb:61:5b:89:a8:2d:ab:17:7c:4d:5c:
                    ff:3b:85:f0:b9:35:72:59:8e:ea:01:fd:fe:61:de:
                    3f:55:82:eb:01:99:70:dd:37:8b:76:01:ca:9f:49:
                    ee:80:db:b0:0a:53:76:a6:71:e9:e1:34:67:4c:67:
                    c2:b6:fe:48:da:d0:b2:ce:52:b1:b6:56:e8:c8:43:
                    f0:2c:35:a0:7d:1c:b0:c9:ce:ca:c8:ef:0a:65:d2:
                    d7:a0:9f:32:d6:25:c5:34:e2:c2:19:37:aa:98:b4:
                    b3:2b:1c:c8:47:b8:de:c9:0f:5c:55:ee:94:33:6e:
                    5a:51:86:68:61:b4:f1:00:22:e3:29:f9:65:f4:12:
                    1c:07:fc:34:2b:88:47:f8:c5:2b:86:6c:f0:1d:04:
                    bd:0e:aa:84:d7:78:be:d8:72:9f:73:2d:0a:34:b5:
                    18:99:21
                Exponent: 65537 (0x10001)
        X509v3 extensions:
            X509v3 Basic Constraints: 
                CA:FALSE
            X509v3 Key Usage: 
                Digital Signature, Non Repudiation, Key Encipherment
            X509v3 Subject Alternative Name: 
                DNS:a.alice.com, DNS:aa.bob.com, DNS:*.carol.com, DNS:*.david.com, DNS:kk.eve.com, DNS:*.felica.com, DNS:*.god.com, DNS:*.have.com, DNS:*.ioha.com, DNS:mm.jitter.com, DNS:*.key.com, DNS:*.lemon.com, DNS:*.man.com, DNS:*.nest.com, DNS:test.odd.com, DNS:*.panic.com, DNS:www.quizlet.com, DNS:alice.com, DNS:www.alice.com, DNS:www.alice.co.kr, DNS:k.alice.co.pe, DNS:m.bob.co.uk, DNS:n.david.org, DNS:o.david.or.kr, DNS:p.next.io, DNS:abklfjlaknd.djfliehaolfihlknvcf.woqiero.ab, DNS:popoelrkdafnfkdjrwqkrwerhjnfsd.wherioweuyhriou23.13498dafefh.com, DNS:poqwetprlknvkjbkjdthfkje.uihhdjkbf.jerlqiwhr.wqherhdjkhf.org, DNS:abc.abc.com, DNS:xyz.xyz.ac.kr, DNS:abd.ac.uk, DNS:cache.ch, DNS:alice.fr, DNS:*.alice.cm, DNS:*.alice.pm, DNS:*.alice.ht, DNS:fjwpoeifjo.fowehffdghksd.jfwoifj.org, DNS:qoitow.sahkf.wjrkeh.kr, DNS:*.alice.co.jp, DNS:*.carol.gov, DNS:qoier.vkxsufd.nzxfgld.gdf.ns, DNS:www.carol.com.gr, DNS:sldkfhl.nbvkfhg.uth.gr, DNS:alkd.fnrehfkjfehwef.kr, DNS:test.test.test.com, DNS:asdf.ngvleg.asdlf.jp, DNS:jalsd.qnwkej.pe, DNS:fkjs.vnclkgfrljrf.be, DNS:www.test.be, DNS:fajsl.vnrfrighel.io
    Signature Algorithm: sha256WithRSAEncryption
         3b:e6:b8:e3:f9:a3:a5:9e:b7:8d:7d:1f:1b:6a:e4:d7:2d:70:
         5a:68:c7:c8:74:f0:67:b6:f5:8e:fa:a2:7e:ae:92:cc:6a:19:
         31:e5:83:06:80:68:45:c6:3c:e5:f7:18:9d:09:be:98:22:06:
         b8:8a:b9:3d:1f:2e:4c:cc:d7:e8:18:81:8c:e5:30:4b:10:20:
         75:9c:9f:a0:25:85:85:78:f4:b4:68:da:26:07:21:06:0c:ad:
         b5:19:ab:02:27:2b:d1:40:e8:0b:04:48:65:2b:20:2c:61:19:
         36:6b:b8:7f:94:45:8c:8e:eb:4e:5e:4a:cd:dc:c1:7f:ec:d9:
         20:ea:87:4b:f5:02:9e:cb:da:2b:24:78:b4:70:5c:12:25:c1:
         02:95:0c:ea:9d:81:5b:7e:06:da:15:93:56:b5:c8:08:48:ca:
         51:15:54:f8:99:18:18:82:9e:36:b2:f8:3a:06:1a:7c:1c:db:
         3c:e7:d0:c5:21:cb:aa:50:e7:41:6f:66:4a:ff:c7:81:c5:59:
         ab:8e:62:b8:6d:7c:45:83:0f:4b:7b:14:3c:ba:87:49:57:45:
         ce:af:c7:b0:15:66:c0:66:49:2a:1b:8b:14:bd:d0:26:10:11:
         36:cd:7c:41:58:cd:fb:a7:79:cc:46:db:e5:e7:7f:eb:13:16:
         04:ca:38:53
-----BEGIN CERTIFICATE-----
MIIItjCCB56gAwIBAgIJANkpy5tFo7uVMA0GCSqGSIb3DQEBCwUAMIGfMQswCQYD
VQQGEwJVUzETMBEGA1UECAwKQ2FsaWZvcm5pYTETMBEGA1UEBwwKQ2FsaWZvcm5p
YTEWMBQGA1UECgwNQWxpY2UgQ0EgTHRkLjEWMBQGA1UECwwNQWxpY2UgQ0EgTHRk
LjEWMBQGA1UEAwwNQWxpY2UgQ0EgTHRkLjEeMBwGCSqGSIb3DQEJARYPY2FAY2Ff
YWxpY2UuY29tMB4XDTE3MTIyMDAxMjU0NloXDTE4MTIyMDAxMjU0NlowgeMxCzAJ
BgNVBAYTAktSMQ4wDAYDVQQIDAVTZW91bDEOMAwGA1UEBwwFU2VvdWwxIjAgBgNV
BAoMGVNlb3VsIE5hdGlvbmFsIFVuaXZlcnNpdHkxLjAsBgNVBAsMJU5ldHdvcmsg
Q29udmVyZ2VuY2UgYW5kIFNlY3VyaXR5IExhYi4xNTAzBgNVBAMMLEFsaWNlIFRl
c3QgQ29ycG9yYXRpb24gZm9yIFNpbXBsZSBFeHBlcmltZW50MSkwJwYJKoZIhvcN
AQkBFhphbGljZS5jYXJvbEB0ZXN0LmVtYWlsLmNvbTCCAiIwDQYJKoZIhvcNAQEB
BQADggIPADCCAgoCggIBALUTQSWkqLJC3Nw+cHcj36TjJacgqKqdELPAkEXMIvbR
ZIyWy0EfTA7Ig1twOtM9ttmFfkUEP79x/kiz7X3TzmHBPOWx57rgGotrd185JnOb
mOxK0VWN42WXxr+iPlc/fp+4lL9v5XDUf3fkmk2gTo6c4blH+VFSsSo2D6n1znG4
qv7SBmZp7AwvUGWi0POR66++UOsUa7Uux9sMJiIuqvb/Gxz3braKxIB6KATvD42w
LcnxQ1VqUU7IHh+0Dn/Emh4pVFbFibaDC7ZucK3Uad1JNgx6XAH6memCGUxpdybD
aDV61aYhocq2Pm0d0KgIERVgSV0vCONrLbeGBxpzwJme4aEa3GqABGHMaES+NSLt
Pl3nAJdvPxlecDspx85SYKGteOCE+wl1n93Am71t/4AHWfQHn4Bz1CRBS37f4Zo9
mQqMek4FA17NwaRRUvG+0DpFrT1SbB4utAEfrcthW4moLasXfE1c/zuF8Lk1clmO
6gH9/mHeP1WC6wGZcN03i3YByp9J7oDbsApTdqZx6eE0Z0xnwrb+SNrQss5SsbZW
6MhD8Cw1oH0csMnOysjvCmXS16CfMtYlxTTiwhk3qpi0syscyEe43skPXFXulDNu
WlGGaGG08QAi4yn5ZfQSHAf8NCuIR/jFK4Zs8B0EvQ6qhNd4vthyn3MtCjS1GJkh
AgMBAAGjggOtMIIDqTAJBgNVHRMEAjAAMAsGA1UdDwQEAwIF4DCCA40GA1UdEQSC
A4QwggOAggthLmFsaWNlLmNvbYIKYWEuYm9iLmNvbYILKi5jYXJvbC5jb22CCyou
ZGF2aWQuY29tggpray5ldmUuY29tggwqLmZlbGljYS5jb22CCSouZ29kLmNvbYIK
Ki5oYXZlLmNvbYIKKi5pb2hhLmNvbYINbW0uaml0dGVyLmNvbYIJKi5rZXkuY29t
ggsqLmxlbW9uLmNvbYIJKi5tYW4uY29tggoqLm5lc3QuY29tggx0ZXN0Lm9kZC5j
b22CCyoucGFuaWMuY29tgg93d3cucXVpemxldC5jb22CCWFsaWNlLmNvbYINd3d3
LmFsaWNlLmNvbYIPd3d3LmFsaWNlLmNvLmtygg1rLmFsaWNlLmNvLnBlggttLmJv
Yi5jby51a4ILbi5kYXZpZC5vcmeCDW8uZGF2aWQub3Iua3KCCXAubmV4dC5pb4Iq
YWJrbGZqbGFrbmQuZGpmbGllaGFvbGZpaGxrbnZjZi53b3FpZXJvLmFigkBwb3Bv
ZWxya2RhZm5ma2Rqcndxa3J3ZXJoam5mc2Qud2hlcmlvd2V1eWhyaW91MjMuMTM0
OThkYWZlZmguY29tgjxwb3F3ZXRwcmxrbnZramJramR0aGZramUudWloaGRqa2Jm
LmplcmxxaXdoci53cWhlcmhkamtoZi5vcmeCC2FiYy5hYmMuY29tgg14eXoueHl6
LmFjLmtygglhYmQuYWMudWuCCGNhY2hlLmNogghhbGljZS5mcoIKKi5hbGljZS5j
bYIKKi5hbGljZS5wbYIKKi5hbGljZS5odIIkZmp3cG9laWZqby5mb3dlaGZmZGdo
a3NkLmpmd29pZmoub3JnghZxb2l0b3cuc2Foa2Yud2pya2VoLmtygg0qLmFsaWNl
LmNvLmpwggsqLmNhcm9sLmdvdoIccW9pZXIudmt4c3VmZC5uenhmZ2xkLmdkZi5u
c4IQd3d3LmNhcm9sLmNvbS5ncoIWc2xka2ZobC5uYnZrZmhnLnV0aC5ncoIWYWxr
ZC5mbnJlaGZramZlaHdlZi5rcoISdGVzdC50ZXN0LnRlc3QuY29tghRhc2RmLm5n
dmxlZy5hc2RsZi5qcIIPamFsc2QucW53a2VqLnBlghRma2pzLnZuY2xrZ2ZybGpy
Zi5iZYILd3d3LnRlc3QuYmWCE2ZhanNsLnZucmZyaWdoZWwuaW8wDQYJKoZIhvcN
AQELBQADggEBADvmuOP5o6Wet419Hxtq5NctcFpox8h08Ge29Y76on6uksxqGTHl
gwaAaEXGPOX3GJ0JvpgiBriKuT0fLkzM1+gYgYzlMEsQIHWcn6AlhYV49LRo2iYH
IQYMrbUZqwInK9FA6AsESGUrICxhGTZruH+URYyO605eSs3cwX/s2SDqh0v1Ap7L
2iskeLRwXBIlwQKVDOqdgVt+BtoVk1a1yAhIylEVVPiZGBiCnjay+DoGGnwc2zzn
0MUhy6pQ50FvZkr/x4HFWauOYrhtfEWDD0t7FDy6h0lXRc6vx7AVZsBmSSobixS9
0CYQETbNfEFYzfunecxG2+Xnf+sTFgTKOFM=
-----END CERTIFICATE-----
