Certificate:
    Data:
        Version: 3 (0x2)
        Serial Number:
            d9:29:cb:9b:45:a3:bb:90
    Signature Algorithm: sha256WithRSAEncryption
        Issuer: C=US, ST=California, L=California, O=Alice CA Ltd., OU=Alice CA Ltd., CN=Alice CA Ltd./emailAddress=ca@ca_alice.com
        Validity
            Not Before: Dec 19 11:27:08 2017 GMT
            Not After : Dec 19 11:27:08 2018 GMT
        Subject: C=KR, ST=Seoul, L=Seoul, O=SNU, OU=MMLAB, CN=MMLAB/emailAddress=mmlab@test.com
        Subject Public Key Info:
            Public Key Algorithm: rsaEncryption
                Public-Key: (2048 bit)
                Modulus:
                    00:c5:fe:27:39:e8:68:76:0d:68:55:d1:1c:56:57:
                    5e:ca:8a:ea:8a:3d:5c:95:fa:a3:0e:85:dc:fc:f1:
                    ef:9b:4c:33:d8:dd:4e:ec:6b:f9:06:83:b1:a9:20:
                    5b:c4:59:5d:b4:70:e2:e3:35:6b:c4:49:16:0a:d2:
                    f1:1b:13:b0:45:4e:fb:51:e6:76:7a:17:45:c5:ee:
                    83:14:13:36:1c:c2:df:08:32:79:9a:ba:60:25:c8:
                    22:43:55:e6:28:6f:6e:fd:30:6d:a9:df:fe:a6:8d:
                    20:7d:9c:50:8f:51:e6:35:d2:a8:ae:ec:8a:59:c6:
                    b1:c4:be:ae:2c:75:ce:39:63:5c:29:1e:c5:66:4e:
                    47:14:7d:8b:cf:46:ff:ac:27:99:26:29:03:96:fa:
                    ac:bb:8c:85:7d:79:4b:94:2d:10:47:5e:cf:de:15:
                    cb:ab:b8:97:2c:4a:48:e5:63:3e:a5:aa:ce:58:d2:
                    b4:b2:d1:b4:0e:aa:94:c1:ee:b5:0b:1e:4d:18:fd:
                    b7:66:5b:3f:94:70:9c:ff:33:37:dc:1a:57:b8:45:
                    95:fc:49:b8:e7:cf:46:53:f6:cc:e7:93:07:1d:64:
                    e9:3d:60:a3:31:d7:38:f4:a3:ea:09:c5:2f:d5:5b:
                    ba:8d:cb:af:be:0f:52:41:30:47:86:84:9e:f8:7e:
                    13:27
                Exponent: 65537 (0x10001)
        X509v3 extensions:
            X509v3 Basic Constraints: 
                CA:FALSE
            X509v3 Key Usage: 
                Digital Signature, Non Repudiation, Key Encipherment
            X509v3 Subject Alternative Name: 
                DNS:a.alice.com, DNS:aa.bob.com, DNS:*.carol.com, DNS:*.david.com, DNS:kk.eve.com, DNS:*.felica.com, DNS:*.god.com, DNS:*.have.com, DNS:*.ioha.com, DNS:mm.jitter.com, DNS:*.key.com, DNS:*.lemon.com, DNS:*.man.com, DNS:*.nest.com, DNS:test.odd.com, DNS:*.panic.com, DNS:www.quizlet.com, DNS:alice.com, DNS:www.alice.com, DNS:www.alice.co.kr, DNS:k.alice.co.pe, DNS:m.bob.co.uk, DNS:n.david.org, DNS:o.david.or.kr, DNS:p.next.io
    Signature Algorithm: sha256WithRSAEncryption
         4d:fa:d7:1e:11:a0:e3:cf:76:37:72:c7:6f:27:90:2f:2a:1a:
         75:fd:92:38:16:62:e5:8b:7f:9d:c4:eb:78:3c:7e:db:7b:2d:
         7c:f9:52:2b:40:59:99:71:46:f7:8b:68:09:6c:4f:50:86:f7:
         a6:f8:3f:60:26:7a:28:80:b8:5d:5b:a4:8e:91:b3:a3:38:8d:
         ba:f5:48:cf:95:38:97:fd:f8:40:a3:36:e0:93:af:0c:b8:c3:
         92:b7:53:53:83:15:5b:68:15:f8:48:ed:b2:36:52:48:27:aa:
         28:6a:49:01:5d:83:05:08:b6:50:46:ba:b3:61:27:a7:16:9c:
         19:f9:48:fc:56:c5:22:c8:15:c1:eb:be:54:d0:57:86:aa:fa:
         bf:8b:f0:d7:d7:ba:f8:fb:c2:49:92:d2:ec:90:16:3b:44:89:
         8b:4f:68:5c:c8:64:68:f5:db:7c:91:69:b7:80:f5:a0:3a:b7:
         62:f8:ef:65:4b:4e:23:68:a5:40:c9:98:92:80:e7:c6:45:d0:
         5f:c7:ba:16:0f:3c:f6:54:73:14:8a:73:aa:dd:57:58:eb:1b:
         70:e0:f1:1a:05:d0:bb:31:d1:14:f5:10:3d:bc:ea:ff:85:f1:
         5e:5c:2c:b2:41:7b:6b:c4:23:72:ff:97:85:e5:c3:9c:90:ce:
         df:fa:89:db
-----BEGIN CERTIFICATE-----
MIIFFDCCA/ygAwIBAgIJANkpy5tFo7uQMA0GCSqGSIb3DQEBCwUAMIGfMQswCQYD
VQQGEwJVUzETMBEGA1UECAwKQ2FsaWZvcm5pYTETMBEGA1UEBwwKQ2FsaWZvcm5p
YTEWMBQGA1UECgwNQWxpY2UgQ0EgTHRkLjEWMBQGA1UECwwNQWxpY2UgQ0EgTHRk
LjEWMBQGA1UEAwwNQWxpY2UgQ0EgTHRkLjEeMBwGCSqGSIb3DQEJARYPY2FAY2Ff
YWxpY2UuY29tMB4XDTE3MTIxOTExMjcwOFoXDTE4MTIxOTExMjcwOFowejELMAkG
A1UEBhMCS1IxDjAMBgNVBAgMBVNlb3VsMQ4wDAYDVQQHDAVTZW91bDEMMAoGA1UE
CgwDU05VMQ4wDAYDVQQLDAVNTUxBQjEOMAwGA1UEAwwFTU1MQUIxHTAbBgkqhkiG
9w0BCQEWDm1tbGFiQHRlc3QuY29tMIIBIjANBgkqhkiG9w0BAQEFAAOCAQ8AMIIB
CgKCAQEAxf4nOehodg1oVdEcVldeyorqij1clfqjDoXc/PHvm0wz2N1O7Gv5BoOx
qSBbxFldtHDi4zVrxEkWCtLxGxOwRU77UeZ2ehdFxe6DFBM2HMLfCDJ5mrpgJcgi
Q1XmKG9u/TBtqd/+po0gfZxQj1HmNdKoruyKWcaxxL6uLHXOOWNcKR7FZk5HFH2L
z0b/rCeZJikDlvqsu4yFfXlLlC0QR17P3hXLq7iXLEpI5WM+parOWNK0stG0DqqU
we61Cx5NGP23Zls/lHCc/zM33BpXuEWV/Em4589GU/bM55MHHWTpPWCjMdc49KPq
CcUv1Vu6jcuvvg9SQTBHhoSe+H4TJwIDAQABo4IBdTCCAXEwCQYDVR0TBAIwADAL
BgNVHQ8EBAMCBeAwggFVBgNVHREEggFMMIIBSIILYS5hbGljZS5jb22CCmFhLmJv
Yi5jb22CCyouY2Fyb2wuY29tggsqLmRhdmlkLmNvbYIKa2suZXZlLmNvbYIMKi5m
ZWxpY2EuY29tggkqLmdvZC5jb22CCiouaGF2ZS5jb22CCiouaW9oYS5jb22CDW1t
LmppdHRlci5jb22CCSoua2V5LmNvbYILKi5sZW1vbi5jb22CCSoubWFuLmNvbYIK
Ki5uZXN0LmNvbYIMdGVzdC5vZGQuY29tggsqLnBhbmljLmNvbYIPd3d3LnF1aXps
ZXQuY29tgglhbGljZS5jb22CDXd3dy5hbGljZS5jb22CD3d3dy5hbGljZS5jby5r
coINay5hbGljZS5jby5wZYILbS5ib2IuY28udWuCC24uZGF2aWQub3Jngg1vLmRh
dmlkLm9yLmtygglwLm5leHQuaW8wDQYJKoZIhvcNAQELBQADggEBAE361x4RoOPP
djdyx28nkC8qGnX9kjgWYuWLf53E63g8ftt7LXz5UitAWZlxRveLaAlsT1CG96b4
P2AmeiiAuF1bpI6Rs6M4jbr1SM+VOJf9+ECjNuCTrwy4w5K3U1ODFVtoFfhI7bI2
UkgnqihqSQFdgwUItlBGurNhJ6cWnBn5SPxWxSLIFcHrvlTQV4aq+r+L8NfXuvj7
wkmS0uyQFjtEiYtPaFzIZGj123yRabeA9aA6t2L472VLTiNopUDJmJKA58ZF0F/H
uhYPPPZUcxSKc6rdV1jrG3Dg8RoF0Lsx0RT1ED286v+F8V5cLLJBe2vEI3L/l4Xl
w5yQzt/6ids=
-----END CERTIFICATE-----
