Certificate:
    Data:
        Version: 3 (0x2)
        Serial Number:
            d9:29:cb:9b:45:a3:bb:8f
    Signature Algorithm: sha256WithRSAEncryption
        Issuer: C=US, ST=California, L=California, O=Alice CA Ltd., OU=Alice CA Ltd., CN=Alice CA Ltd./emailAddress=ca@ca_alice.com
        Validity
            Not Before: Dec 19 11:18:17 2017 GMT
            Not After : Dec 19 11:18:17 2018 GMT
        Subject: C=KR, ST=seoul, L=Seoul, O=MMLAB, OU=MMLAB, CN=MMLAB/emailAddress=mmlab@test.com
        Subject Public Key Info:
            Public Key Algorithm: rsaEncryption
                Public-Key: (2048 bit)
                Modulus:
                    00:c5:fe:27:39:e8:68:76:0d:68:55:d1:1c:56:57:
                    5e:ca:8a:ea:8a:3d:5c:95:fa:a3:0e:85:dc:fc:f1:
                    ef:9b:4c:33:d8:dd:4e:ec:6b:f9:06:83:b1:a9:20:
                    5b:c4:59:5d:b4:70:e2:e3:35:6b:c4:49:16:0a:d2:
                    f1:1b:13:b0:45:4e:fb:51:e6:76:7a:17:45:c5:ee:
                    83:14:13:36:1c:c2:df:08:32:79:9a:ba:60:25:c8:
                    22:43:55:e6:28:6f:6e:fd:30:6d:a9:df:fe:a6:8d:
                    20:7d:9c:50:8f:51:e6:35:d2:a8:ae:ec:8a:59:c6:
                    b1:c4:be:ae:2c:75:ce:39:63:5c:29:1e:c5:66:4e:
                    47:14:7d:8b:cf:46:ff:ac:27:99:26:29:03:96:fa:
                    ac:bb:8c:85:7d:79:4b:94:2d:10:47:5e:cf:de:15:
                    cb:ab:b8:97:2c:4a:48:e5:63:3e:a5:aa:ce:58:d2:
                    b4:b2:d1:b4:0e:aa:94:c1:ee:b5:0b:1e:4d:18:fd:
                    b7:66:5b:3f:94:70:9c:ff:33:37:dc:1a:57:b8:45:
                    95:fc:49:b8:e7:cf:46:53:f6:cc:e7:93:07:1d:64:
                    e9:3d:60:a3:31:d7:38:f4:a3:ea:09:c5:2f:d5:5b:
                    ba:8d:cb:af:be:0f:52:41:30:47:86:84:9e:f8:7e:
                    13:27
                Exponent: 65537 (0x10001)
        X509v3 extensions:
            X509v3 Basic Constraints: 
                CA:FALSE
            X509v3 Key Usage: 
                Digital Signature, Non Repudiation, Key Encipherment
            X509v3 Subject Alternative Name: 
                DNS:*.alice.com, DNS:*.bob.com, DNS:*.carol.com, DNS:*.david.com, DNS:*.eve.com, DNS:*.felica.com, DNS:*.god.com, DNS:*.have.com, DNS:*.ioha.com, DNS:*.jitter.com, DNS:*.key.com, DNS:*.lemon.com, DNS:*.man.com, DNS:*.nest.com, DNS:*.odd.com, DNS:*.panic.com
    Signature Algorithm: sha256WithRSAEncryption
         8f:5d:25:d0:5d:c2:b4:e9:cc:f8:6f:0b:f2:ec:1f:88:96:3b:
         4c:d0:ec:73:01:d9:dd:35:38:ed:c8:1c:da:c0:b0:c0:c6:9d:
         bc:b5:1e:56:8c:74:de:7b:4a:12:e7:e1:9b:cb:93:49:61:70:
         5c:0c:02:a8:d5:80:88:67:25:d8:2f:bd:f3:3b:07:e4:be:9b:
         05:f8:ea:d2:19:94:6e:2b:a2:07:cc:d3:b9:16:ab:1d:44:b4:
         a4:a8:06:dd:3c:29:70:43:87:3a:cd:42:df:e0:39:32:2f:d2:
         aa:8c:1d:dc:ff:b3:50:c4:49:15:e6:2d:af:52:b1:f8:8a:fc:
         cb:e9:10:10:38:d4:3f:73:2f:27:55:15:0e:0c:bc:1f:19:1d:
         32:15:2b:f7:2f:c3:9d:18:77:80:c3:dc:26:7a:53:04:e5:13:
         97:a5:72:6c:6b:29:ed:15:ad:1d:6f:c8:93:04:a5:39:9e:35:
         72:bf:ec:9c:0e:fa:51:6c:f2:50:55:c3:f4:7f:36:bf:5d:41:
         7b:3c:ca:e3:a1:84:77:f1:4d:82:27:3d:4f:e4:fa:e1:9b:47:
         c5:74:f6:96:ce:aa:9b:89:e7:d5:ab:96:b6:7b:66:89:96:68:
         69:49:33:7d:ad:ee:bf:c4:7d:06:4a:5e:3c:be:21:8e:e7:b0:
         78:95:f7:9b
-----BEGIN CERTIFICATE-----
MIIEjDCCA3SgAwIBAgIJANkpy5tFo7uPMA0GCSqGSIb3DQEBCwUAMIGfMQswCQYD
VQQGEwJVUzETMBEGA1UECAwKQ2FsaWZvcm5pYTETMBEGA1UEBwwKQ2FsaWZvcm5p
YTEWMBQGA1UECgwNQWxpY2UgQ0EgTHRkLjEWMBQGA1UECwwNQWxpY2UgQ0EgTHRk
LjEWMBQGA1UEAwwNQWxpY2UgQ0EgTHRkLjEeMBwGCSqGSIb3DQEJARYPY2FAY2Ff
YWxpY2UuY29tMB4XDTE3MTIxOTExMTgxN1oXDTE4MTIxOTExMTgxN1owfDELMAkG
A1UEBhMCS1IxDjAMBgNVBAgMBXNlb3VsMQ4wDAYDVQQHDAVTZW91bDEOMAwGA1UE
CgwFTU1MQUIxDjAMBgNVBAsMBU1NTEFCMQ4wDAYDVQQDDAVNTUxBQjEdMBsGCSqG
SIb3DQEJARYObW1sYWJAdGVzdC5jb20wggEiMA0GCSqGSIb3DQEBAQUAA4IBDwAw
ggEKAoIBAQDF/ic56Gh2DWhV0RxWV17KiuqKPVyV+qMOhdz88e+bTDPY3U7sa/kG
g7GpIFvEWV20cOLjNWvESRYK0vEbE7BFTvtR5nZ6F0XF7oMUEzYcwt8IMnmaumAl
yCJDVeYob279MG2p3/6mjSB9nFCPUeY10qiu7IpZxrHEvq4sdc45Y1wpHsVmTkcU
fYvPRv+sJ5kmKQOW+qy7jIV9eUuULRBHXs/eFcuruJcsSkjlYz6lqs5Y0rSy0bQO
qpTB7rULHk0Y/bdmWz+UcJz/MzfcGle4RZX8Sbjnz0ZT9sznkwcdZOk9YKMx1zj0
o+oJxS/VW7qNy6++D1JBMEeGhJ74fhMnAgMBAAGjgewwgekwCQYDVR0TBAIwADAL
BgNVHQ8EBAMCBeAwgc4GA1UdEQSBxjCBw4ILKi5hbGljZS5jb22CCSouYm9iLmNv
bYILKi5jYXJvbC5jb22CCyouZGF2aWQuY29tggkqLmV2ZS5jb22CDCouZmVsaWNh
LmNvbYIJKi5nb2QuY29tggoqLmhhdmUuY29tggoqLmlvaGEuY29tggwqLmppdHRl
ci5jb22CCSoua2V5LmNvbYILKi5sZW1vbi5jb22CCSoubWFuLmNvbYIKKi5uZXN0
LmNvbYIJKi5vZGQuY29tggsqLnBhbmljLmNvbTANBgkqhkiG9w0BAQsFAAOCAQEA
j10l0F3CtOnM+G8L8uwfiJY7TNDscwHZ3TU47cgc2sCwwMadvLUeVox03ntKEufh
m8uTSWFwXAwCqNWAiGcl2C+98zsH5L6bBfjq0hmUbiuiB8zTuRarHUS0pKgG3Twp
cEOHOs1C3+A5Mi/Sqowd3P+zUMRJFeYtr1Kx+Ir8y+kQEDjUP3MvJ1UVDgy8Hxkd
MhUr9y/DnRh3gMPcJnpTBOUTl6VybGsp7RWtHW/IkwSlOZ41cr/snA76UWzyUFXD
9H82v11BezzK46GEd/FNgic9T+T64ZtHxXT2ls6qm4nn1auWtntmiZZoaUkzfa3u
v8R9BkpePL4hjueweJX3mw==
-----END CERTIFICATE-----
