Certificate:
    Data:
        Version: 3 (0x2)
        Serial Number:
            d9:29:cb:9b:45:a3:bb:94
    Signature Algorithm: sha256WithRSAEncryption
        Issuer: C=US, ST=California, L=California, O=Alice CA Ltd., OU=Alice CA Ltd., CN=Alice CA Ltd./emailAddress=ca@ca_alice.com
        Validity
            Not Before: Dec 20 01:19:20 2017 GMT
            Not After : Dec 20 01:19:20 2018 GMT
        Subject: C=KR, ST=Seoul, L=Seoul, O=Seoul National University, OU=Network Convergence and Security Lab., CN=Alice Test Corporation for the Test Experiment/emailAddress=alice.carol@mmlab.snu.ac.kr
        Subject Public Key Info:
            Public Key Algorithm: rsaEncryption
                Public-Key: (4096 bit)
                Modulus:
                    00:ee:3a:44:b7:66:33:2c:69:12:58:cf:cc:41:f5:
                    71:ea:c8:20:cb:e9:a9:80:ac:ca:60:af:da:37:67:
                    10:43:fc:fb:27:2a:38:b5:da:28:2a:7b:e8:4a:ce:
                    20:12:15:36:c9:41:30:af:78:27:a3:1c:c7:17:27:
                    f7:d4:04:16:2a:66:f2:c0:1d:2e:82:d9:f2:cc:fa:
                    02:c7:20:dc:0c:9a:9e:a9:de:da:dc:fd:6a:a1:01:
                    53:64:48:45:f0:77:f1:ce:7b:d8:79:ed:b6:08:58:
                    94:23:b5:a8:f5:67:02:2b:22:47:43:c6:ff:2e:71:
                    7f:2c:07:61:3a:21:ae:f0:b8:27:59:ec:4f:bd:10:
                    01:4f:20:6a:28:e9:07:62:35:de:06:f1:e4:3e:11:
                    09:ec:07:41:35:6f:4c:f4:fc:8f:eb:de:e0:fe:21:
                    46:84:4f:6f:52:f0:a6:ec:fd:4e:c6:ab:7e:33:60:
                    6b:cd:63:ba:71:4a:a6:17:95:6b:fd:a4:b5:e0:b5:
                    8a:a2:23:0e:41:77:4b:78:c5:51:b1:ce:59:2e:12:
                    ce:76:a1:f1:4b:ed:e7:9b:cb:e0:5a:71:e5:d5:9b:
                    81:ac:91:29:c5:99:07:99:8f:f1:23:ef:82:ac:5f:
                    20:a0:8a:6f:6c:ca:59:86:22:bb:aa:91:60:bf:4d:
                    44:6a:1f:aa:32:09:d6:bf:11:84:b7:5b:eb:a8:c2:
                    58:a6:2f:b4:7b:91:de:ca:69:7c:7e:1d:03:9e:f3:
                    01:20:35:80:9e:99:c7:28:25:3d:8e:61:ce:6d:a1:
                    d1:67:09:4a:5a:dc:83:88:2e:3c:8e:95:52:69:7a:
                    76:d6:80:d8:d6:f1:68:a1:1a:9c:cb:3e:1e:6c:f2:
                    53:2d:38:71:60:d0:d9:a3:73:f7:1f:2c:b9:d6:0d:
                    c2:e0:ba:64:dd:78:53:dc:b9:bd:47:19:2e:31:b4:
                    f0:ef:5f:98:4c:ed:d3:00:13:09:ef:cb:40:d5:52:
                    c3:92:89:52:a9:fa:5d:dd:54:98:69:75:3a:e4:b3:
                    8c:8e:ed:0b:98:27:fd:18:2a:fe:24:19:35:86:87:
                    3b:db:50:3a:e1:5a:c3:61:d2:79:76:26:e4:0c:5f:
                    7f:b9:4b:5e:50:ec:da:18:e5:6b:d1:0c:56:6e:61:
                    2a:5e:89:f4:cf:fc:74:d0:95:8d:1e:4d:23:13:3a:
                    0d:b9:75:f9:4d:6f:08:a7:88:cd:d2:4a:ef:b9:0f:
                    78:f1:16:f2:9d:5e:3b:0c:48:e7:03:fe:81:8f:c3:
                    02:fc:08:d4:40:0c:e8:22:bb:cc:cc:6e:7e:cd:6c:
                    34:78:24:8e:c8:9a:7d:ea:d8:7e:64:16:c0:c8:6f:
                    6e:36:79
                Exponent: 65537 (0x10001)
        X509v3 extensions:
            X509v3 Basic Constraints: 
                CA:FALSE
            X509v3 Key Usage: 
                Digital Signature, Non Repudiation, Key Encipherment
            X509v3 Subject Alternative Name: 
                DNS:a.alice.com, DNS:aa.bob.com, DNS:*.carol.com, DNS:*.david.com, DNS:kk.eve.com, DNS:*.felica.com, DNS:*.god.com, DNS:*.have.com, DNS:*.ioha.com, DNS:mm.jitter.com, DNS:*.key.com, DNS:*.lemon.com, DNS:*.man.com, DNS:*.nest.com, DNS:test.odd.com, DNS:*.panic.com, DNS:www.quizlet.com, DNS:alice.com, DNS:www.alice.com, DNS:www.alice.co.kr, DNS:k.alice.co.pe, DNS:m.bob.co.uk, DNS:n.david.org, DNS:o.david.or.kr, DNS:p.next.io, DNS:abklfjlaknd.djfliehaolfihlknvcf.woqiero.ab, DNS:popoelrkdafnfkdjrwqkrwerhjnfsd.wherioweuyhriou23.13498dafefh.com, DNS:poqwetprlknvkjbkjdthfkje.uihhdjkbf.jerlqiwhr.wqherhdjkhf.org, DNS:abc.abc.com, DNS:xyz.xyz.ac.kr, DNS:abd.ac.uk, DNS:cache.ch, DNS:alice.fr, DNS:*.alice.cm, DNS:*.alice.pm, DNS:*.alice.ht, DNS:fjwpoeifjo.fowehffdghksd.jfwoifj.org, DNS:qoitow.sahkf.wjrkeh.kr, DNS:*.alice.co.jp, DNS:*.carol.gov, DNS:qoier.vkxsufd.nzxfgld.gdf.ns, DNS:www.carol.com.gr, DNS:sldkfhl.nbvkfhg.uth.gr, DNS:alkd.fnrehfkjfehwef.kr, DNS:test.test.test.com, DNS:asdf.ngvleg.asdlf.jp, DNS:jalsd.qnwkej.pe, DNS:fkjs.vnclkgfrljrf.be, DNS:www.test.be, DNS:fajsl.vnrfrighel.io
    Signature Algorithm: sha256WithRSAEncryption
         93:cd:c5:51:04:2e:b8:bf:1c:32:d5:12:d6:33:4b:aa:7d:7e:
         d7:ba:5b:1b:7c:70:d3:06:87:ac:a5:71:87:0b:75:5e:a8:1b:
         52:41:75:8d:f5:ca:a3:98:a4:8d:c1:11:f7:aa:43:8d:ab:62:
         ff:59:ff:a6:34:b1:29:36:57:29:2e:f9:a1:b1:d9:73:27:9d:
         08:7f:05:22:82:99:2a:45:49:68:38:de:30:3f:fb:75:87:32:
         13:27:13:e4:2c:e7:93:c9:45:e1:28:d5:f1:0b:82:d1:38:5f:
         7d:9f:58:25:be:93:5d:ab:2e:bd:d6:b8:22:6f:60:19:60:e9:
         37:ce:10:53:b4:7f:94:4a:15:ac:51:96:7b:e2:33:b2:54:ab:
         92:c5:b9:e9:9f:41:9d:2e:c2:46:af:14:7b:89:32:9f:b2:03:
         42:8b:69:04:40:20:fc:77:c9:2c:77:1c:25:bf:9c:20:43:3f:
         6e:b5:b9:cf:96:2f:43:70:0e:62:4f:5e:ea:69:bb:84:31:5d:
         ca:b1:35:67:8e:65:fd:87:a7:60:da:0e:49:51:b8:2b:70:5a:
         52:96:09:40:7a:2b:7a:6c:5a:bc:91:99:6e:d8:ec:1d:dc:c7:
         70:19:5c:f1:0d:58:fd:6a:98:37:99:dc:0f:c2:92:56:65:ab:
         6a:38:ae:74
-----BEGIN CERTIFICATE-----
MIIIuTCCB6GgAwIBAgIJANkpy5tFo7uUMA0GCSqGSIb3DQEBCwUAMIGfMQswCQYD
VQQGEwJVUzETMBEGA1UECAwKQ2FsaWZvcm5pYTETMBEGA1UEBwwKQ2FsaWZvcm5p
YTEWMBQGA1UECgwNQWxpY2UgQ0EgTHRkLjEWMBQGA1UECwwNQWxpY2UgQ0EgTHRk
LjEWMBQGA1UEAwwNQWxpY2UgQ0EgTHRkLjEeMBwGCSqGSIb3DQEJARYPY2FAY2Ff
YWxpY2UuY29tMB4XDTE3MTIyMDAxMTkyMFoXDTE4MTIyMDAxMTkyMFowgeYxCzAJ
BgNVBAYTAktSMQ4wDAYDVQQIDAVTZW91bDEOMAwGA1UEBwwFU2VvdWwxIjAgBgNV
BAoMGVNlb3VsIE5hdGlvbmFsIFVuaXZlcnNpdHkxLjAsBgNVBAsMJU5ldHdvcmsg
Q29udmVyZ2VuY2UgYW5kIFNlY3VyaXR5IExhYi4xNzA1BgNVBAMMLkFsaWNlIFRl
c3QgQ29ycG9yYXRpb24gZm9yIHRoZSBUZXN0IEV4cGVyaW1lbnQxKjAoBgkqhkiG
9w0BCQEWG2FsaWNlLmNhcm9sQG1tbGFiLnNudS5hYy5rcjCCAiIwDQYJKoZIhvcN
AQEBBQADggIPADCCAgoCggIBAO46RLdmMyxpEljPzEH1cerIIMvpqYCsymCv2jdn
EEP8+ycqOLXaKCp76ErOIBIVNslBMK94J6Mcxxcn99QEFipm8sAdLoLZ8sz6Ascg
3Ayanqne2tz9aqEBU2RIRfB38c572HnttghYlCO1qPVnAisiR0PG/y5xfywHYToh
rvC4J1nsT70QAU8gaijpB2I13gbx5D4RCewHQTVvTPT8j+ve4P4hRoRPb1Lwpuz9
TsarfjNga81junFKpheVa/2kteC1iqIjDkF3S3jFUbHOWS4Sznah8Uvt55vL4Fpx
5dWbgayRKcWZB5mP8SPvgqxfIKCKb2zKWYYiu6qRYL9NRGofqjIJ1r8RhLdb66jC
WKYvtHuR3sppfH4dA57zASA1gJ6ZxyglPY5hzm2h0WcJSlrcg4guPI6VUml6dtaA
2NbxaKEanMs+HmzyUy04cWDQ2aNz9x8sudYNwuC6ZN14U9y5vUcZLjG08O9fmEzt
0wATCe/LQNVSw5KJUqn6Xd1UmGl1OuSzjI7tC5gn/Rgq/iQZNYaHO9tQOuFaw2HS
eXYm5Axff7lLXlDs2hjla9EMVm5hKl6J9M/8dNCVjR5NIxM6Dbl1+U1vCKeIzdJK
77kPePEW8p1eOwxI5wP+gY/DAvwI1EAM6CK7zMxufs1sNHgkjsiaferYfmQWwMhv
bjZ5AgMBAAGjggOtMIIDqTAJBgNVHRMEAjAAMAsGA1UdDwQEAwIF4DCCA40GA1Ud
EQSCA4QwggOAggthLmFsaWNlLmNvbYIKYWEuYm9iLmNvbYILKi5jYXJvbC5jb22C
CyouZGF2aWQuY29tggpray5ldmUuY29tggwqLmZlbGljYS5jb22CCSouZ29kLmNv
bYIKKi5oYXZlLmNvbYIKKi5pb2hhLmNvbYINbW0uaml0dGVyLmNvbYIJKi5rZXku
Y29tggsqLmxlbW9uLmNvbYIJKi5tYW4uY29tggoqLm5lc3QuY29tggx0ZXN0Lm9k
ZC5jb22CCyoucGFuaWMuY29tgg93d3cucXVpemxldC5jb22CCWFsaWNlLmNvbYIN
d3d3LmFsaWNlLmNvbYIPd3d3LmFsaWNlLmNvLmtygg1rLmFsaWNlLmNvLnBlggtt
LmJvYi5jby51a4ILbi5kYXZpZC5vcmeCDW8uZGF2aWQub3Iua3KCCXAubmV4dC5p
b4IqYWJrbGZqbGFrbmQuZGpmbGllaGFvbGZpaGxrbnZjZi53b3FpZXJvLmFigkBw
b3BvZWxya2RhZm5ma2Rqcndxa3J3ZXJoam5mc2Qud2hlcmlvd2V1eWhyaW91MjMu
MTM0OThkYWZlZmguY29tgjxwb3F3ZXRwcmxrbnZramJramR0aGZramUudWloaGRq
a2JmLmplcmxxaXdoci53cWhlcmhkamtoZi5vcmeCC2FiYy5hYmMuY29tgg14eXou
eHl6LmFjLmtygglhYmQuYWMudWuCCGNhY2hlLmNogghhbGljZS5mcoIKKi5hbGlj
ZS5jbYIKKi5hbGljZS5wbYIKKi5hbGljZS5odIIkZmp3cG9laWZqby5mb3dlaGZm
ZGdoa3NkLmpmd29pZmoub3JnghZxb2l0b3cuc2Foa2Yud2pya2VoLmtygg0qLmFs
aWNlLmNvLmpwggsqLmNhcm9sLmdvdoIccW9pZXIudmt4c3VmZC5uenhmZ2xkLmdk
Zi5uc4IQd3d3LmNhcm9sLmNvbS5ncoIWc2xka2ZobC5uYnZrZmhnLnV0aC5ncoIW
YWxrZC5mbnJlaGZramZlaHdlZi5rcoISdGVzdC50ZXN0LnRlc3QuY29tghRhc2Rm
Lm5ndmxlZy5hc2RsZi5qcIIPamFsc2QucW53a2VqLnBlghRma2pzLnZuY2xrZ2Zy
bGpyZi5iZYILd3d3LnRlc3QuYmWCE2ZhanNsLnZucmZyaWdoZWwuaW8wDQYJKoZI
hvcNAQELBQADggEBAJPNxVEELri/HDLVEtYzS6p9fte6Wxt8cNMGh6ylcYcLdV6o
G1JBdY31yqOYpI3BEfeqQ42rYv9Z/6Y0sSk2Vyku+aGx2XMnnQh/BSKCmSpFSWg4
3jA/+3WHMhMnE+Qs55PJReEo1fELgtE4X32fWCW+k12rLr3WuCJvYBlg6TfOEFO0
f5RKFaxRlnviM7JUq5LFuemfQZ0uwkavFHuJMp+yA0KLaQRAIPx3ySx3HCW/nCBD
P261uc+WL0NwDmJPXuppu4QxXcqxNWeOZf2Hp2DaDklRuCtwWlKWCUB6K3psWryR
mW7Y7B3cx3AZXPENWP1qmDeZ3A/CklZlq2o4rnQ=
-----END CERTIFICATE-----
