Certificate:
    Data:
        Version: 3 (0x2)
        Serial Number:
            d9:29:cb:9b:45:a3:bb:91
    Signature Algorithm: sha256WithRSAEncryption
        Issuer: C=US, ST=California, L=California, O=Alice CA Ltd., OU=Alice CA Ltd., CN=Alice CA Ltd./emailAddress=ca@ca_alice.com
        Validity
            Not Before: Dec 19 11:29:18 2017 GMT
            Not After : Dec 19 11:29:18 2018 GMT
        Subject: C=KR, ST=Seoul, L=Seoul, O=SNU, OU=MMLAB, CN=MMLAB/emailAddress=mmlab@test.com
        Subject Public Key Info:
            Public Key Algorithm: rsaEncryption
                Public-Key: (4096 bit)
                Modulus:
                    00:b7:15:47:c7:82:29:36:a9:e5:42:97:62:7f:20:
                    92:7b:80:df:c9:9f:23:ab:dd:ea:29:e2:d6:f7:0a:
                    d6:4d:0d:4c:4b:d8:d6:27:e8:d0:5f:7b:ff:bc:93:
                    c7:5c:a5:8e:05:61:16:1f:d7:c3:83:b8:7b:8a:3e:
                    b7:e3:c0:29:5e:7d:f8:95:5f:89:4d:04:50:38:8e:
                    b6:f1:30:5f:5f:05:ca:de:04:8b:4b:a8:63:8e:ed:
                    4d:03:ac:38:3b:4e:ea:4a:3e:ec:50:4d:45:54:6c:
                    08:4d:aa:92:89:c8:ab:92:54:4d:e9:0b:2f:02:9d:
                    b4:a0:46:5f:83:66:28:1c:32:d7:99:48:0e:68:7a:
                    a8:3e:d8:76:84:a3:34:82:89:15:d3:5c:fc:a6:a4:
                    5d:c3:55:b5:4b:7f:0b:a9:77:a0:28:dc:50:d2:b9:
                    5c:fc:f7:f8:76:06:99:5c:76:6f:9f:c1:5d:02:77:
                    f6:bc:bd:4a:a2:3b:c2:5f:69:01:4a:89:c3:d5:31:
                    c1:e0:96:a9:74:7c:14:ab:9c:81:e5:43:d1:6a:9d:
                    96:cf:0c:6a:0d:f0:dd:49:a9:5d:6a:21:3c:a8:2a:
                    5e:d5:20:81:50:a8:c2:e2:79:bc:3f:8a:54:a9:7e:
                    28:90:31:2c:d6:43:75:1c:ac:ed:79:9c:6d:aa:9e:
                    e9:66:a1:72:cb:25:82:40:c8:12:17:9f:59:8e:d6:
                    d5:ce:a3:29:56:7f:1d:f9:18:ae:8e:83:d1:29:9e:
                    67:24:6b:f6:9d:e9:97:0d:8c:42:12:8f:df:6c:f0:
                    9d:cb:90:6f:f8:e8:2b:f5:47:56:45:9d:1a:cc:fd:
                    74:70:c5:57:83:ab:7c:99:a3:15:02:51:82:9f:0c:
                    29:86:64:37:93:12:4d:59:fa:3f:85:4e:96:00:fe:
                    17:b8:73:db:95:50:af:b3:86:b1:3d:0c:e5:ea:b7:
                    64:05:d0:38:6d:30:c9:93:13:a9:33:ba:d1:2f:68:
                    40:df:bf:35:08:a2:31:62:fb:1f:1d:ea:b6:a6:8d:
                    a4:6d:a8:57:39:ba:f0:16:57:d7:ca:ec:07:5d:3e:
                    be:b4:e7:80:2c:ee:d9:b6:b8:2e:b9:26:7e:e1:b5:
                    38:d3:ea:cb:3c:4f:17:71:f9:1b:fb:dd:fc:3f:b9:
                    43:ae:fe:05:fb:58:55:35:79:19:4e:cf:61:ac:ab:
                    cf:cc:0f:b4:be:9d:3d:9d:7b:e9:e1:b8:2e:c9:30:
                    81:7f:5f:60:88:e0:61:27:2a:b8:da:8c:13:f6:c6:
                    50:17:2c:2f:e5:cb:c1:da:cf:2d:f8:a9:7b:ed:c7:
                    8e:a0:ee:80:9e:5b:56:6f:e3:5d:1e:0f:e1:4a:ef:
                    93:9d:df
                Exponent: 65537 (0x10001)
        X509v3 extensions:
            X509v3 Basic Constraints: 
                CA:FALSE
            X509v3 Key Usage: 
                Digital Signature, Non Repudiation, Key Encipherment
            X509v3 Subject Alternative Name: 
                DNS:a.alice.com, DNS:aa.bob.com, DNS:*.carol.com, DNS:*.david.com, DNS:kk.eve.com, DNS:*.felica.com, DNS:*.god.com, DNS:*.have.com, DNS:*.ioha.com, DNS:mm.jitter.com, DNS:*.key.com, DNS:*.lemon.com, DNS:*.man.com, DNS:*.nest.com, DNS:test.odd.com, DNS:*.panic.com, DNS:www.quizlet.com, DNS:alice.com, DNS:www.alice.com, DNS:www.alice.co.kr, DNS:k.alice.co.pe, DNS:m.bob.co.uk, DNS:n.david.org, DNS:o.david.or.kr, DNS:p.next.io
    Signature Algorithm: sha256WithRSAEncryption
         60:1c:f7:7d:9f:fb:08:12:08:da:ae:c9:bd:42:3b:28:b6:9e:
         1a:bd:09:29:33:f4:99:00:e9:d7:f9:52:9a:c7:e3:57:fe:ed:
         e4:36:0f:6b:f6:e1:f4:21:03:a7:fd:e6:75:21:d0:a0:0f:cb:
         33:1f:6e:45:77:40:ce:19:33:be:97:63:7c:7b:54:c1:10:c6:
         d1:98:01:01:a0:17:6f:86:d7:6f:cb:7e:be:df:eb:17:ac:61:
         cd:41:13:0e:71:e8:96:ea:20:0a:e1:ce:8c:73:04:91:28:e9:
         57:d2:9b:75:7e:d2:b2:d3:f0:62:e9:cc:5c:34:6a:eb:61:73:
         e0:9d:fa:5d:13:ce:5b:51:23:eb:b9:a6:92:3e:7e:97:d3:28:
         ab:b9:43:fe:6d:dd:15:72:19:0b:4c:83:07:e7:c2:36:ff:2e:
         02:7b:65:f4:ba:a1:b8:ec:e2:1a:56:75:d0:5b:4b:32:68:1c:
         61:ff:10:df:bf:c3:ce:87:d6:e6:6c:76:96:95:61:ab:3d:9e:
         23:a0:de:ba:8b:f6:c5:c7:f8:3d:c4:7a:9f:34:0b:4e:46:e8:
         20:5a:8b:69:d0:30:4f:24:df:ac:41:3f:75:db:26:13:73:74:
         54:7c:69:d3:62:f6:76:b3:3e:fd:5e:4e:bf:32:57:fe:2f:6b:
         24:64:f4:40
-----BEGIN CERTIFICATE-----
MIIGFDCCBPygAwIBAgIJANkpy5tFo7uRMA0GCSqGSIb3DQEBCwUAMIGfMQswCQYD
VQQGEwJVUzETMBEGA1UECAwKQ2FsaWZvcm5pYTETMBEGA1UEBwwKQ2FsaWZvcm5p
YTEWMBQGA1UECgwNQWxpY2UgQ0EgTHRkLjEWMBQGA1UECwwNQWxpY2UgQ0EgTHRk
LjEWMBQGA1UEAwwNQWxpY2UgQ0EgTHRkLjEeMBwGCSqGSIb3DQEJARYPY2FAY2Ff
YWxpY2UuY29tMB4XDTE3MTIxOTExMjkxOFoXDTE4MTIxOTExMjkxOFowejELMAkG
A1UEBhMCS1IxDjAMBgNVBAgMBVNlb3VsMQ4wDAYDVQQHDAVTZW91bDEMMAoGA1UE
CgwDU05VMQ4wDAYDVQQLDAVNTUxBQjEOMAwGA1UEAwwFTU1MQUIxHTAbBgkqhkiG
9w0BCQEWDm1tbGFiQHRlc3QuY29tMIICIjANBgkqhkiG9w0BAQEFAAOCAg8AMIIC
CgKCAgEAtxVHx4IpNqnlQpdifyCSe4DfyZ8jq93qKeLW9wrWTQ1MS9jWJ+jQX3v/
vJPHXKWOBWEWH9fDg7h7ij6348ApXn34lV+JTQRQOI628TBfXwXK3gSLS6hjju1N
A6w4O07qSj7sUE1FVGwITaqSicirklRN6QsvAp20oEZfg2YoHDLXmUgOaHqoPth2
hKM0gokV01z8pqRdw1W1S38LqXegKNxQ0rlc/Pf4dgaZXHZvn8FdAnf2vL1KojvC
X2kBSonD1THB4JapdHwUq5yB5UPRap2WzwxqDfDdSaldaiE8qCpe1SCBUKjC4nm8
P4pUqX4okDEs1kN1HKzteZxtqp7pZqFyyyWCQMgSF59ZjtbVzqMpVn8d+RiujoPR
KZ5nJGv2nemXDYxCEo/fbPCdy5Bv+Ogr9UdWRZ0azP10cMVXg6t8maMVAlGCnwwp
hmQ3kxJNWfo/hU6WAP4XuHPblVCvs4axPQzl6rdkBdA4bTDJkxOpM7rRL2hA3781
CKIxYvsfHeq2po2kbahXObrwFlfXyuwHXT6+tOeALO7ZtrguuSZ+4bU40+rLPE8X
cfkb+938P7lDrv4F+1hVNXkZTs9hrKvPzA+0vp09nXvp4bguyTCBf19giOBhJyq4
2owT9sZQFywv5cvB2s8t+Kl77ceOoO6AnltWb+NdHg/hSu+Tnd8CAwEAAaOCAXUw
ggFxMAkGA1UdEwQCMAAwCwYDVR0PBAQDAgXgMIIBVQYDVR0RBIIBTDCCAUiCC2Eu
YWxpY2UuY29tggphYS5ib2IuY29tggsqLmNhcm9sLmNvbYILKi5kYXZpZC5jb22C
CmtrLmV2ZS5jb22CDCouZmVsaWNhLmNvbYIJKi5nb2QuY29tggoqLmhhdmUuY29t
ggoqLmlvaGEuY29tgg1tbS5qaXR0ZXIuY29tggkqLmtleS5jb22CCyoubGVtb24u
Y29tggkqLm1hbi5jb22CCioubmVzdC5jb22CDHRlc3Qub2RkLmNvbYILKi5wYW5p
Yy5jb22CD3d3dy5xdWl6bGV0LmNvbYIJYWxpY2UuY29tgg13d3cuYWxpY2UuY29t
gg93d3cuYWxpY2UuY28ua3KCDWsuYWxpY2UuY28ucGWCC20uYm9iLmNvLnVrggtu
LmRhdmlkLm9yZ4INby5kYXZpZC5vci5rcoIJcC5uZXh0LmlvMA0GCSqGSIb3DQEB
CwUAA4IBAQBgHPd9n/sIEgjarsm9Qjsotp4avQkpM/SZAOnX+VKax+NX/u3kNg9r
9uH0IQOn/eZ1IdCgD8szH25Fd0DOGTO+l2N8e1TBEMbRmAEBoBdvhtdvy36+3+sX
rGHNQRMOceiW6iAK4c6McwSRKOlX0pt1ftKy0/Bi6cxcNGrrYXPgnfpdE85bUSPr
uaaSPn6X0yiruUP+bd0VchkLTIMH58I2/y4Ce2X0uqG47OIaVnXQW0syaBxh/xDf
v8POh9bmbHaWlWGrPZ4joN66i/bFx/g9xHqfNAtORuggWotp0DBPJN+sQT912yYT
c3RUfGnTYvZ2sz79Xk6/Mlf+L2skZPRA
-----END CERTIFICATE-----
