Certificate:
    Data:
        Version: 3 (0x2)
        Serial Number: 15648262248024226711 (0xd929cb9b45a3bb97)
    Signature Algorithm: sha256WithRSAEncryption
        Issuer: C=US, ST=California, L=California, O=Alice CA Ltd., OU=Alice CA Ltd., CN=Alice CA Ltd./emailAddress=ca@ca_alice.com
        Validity
            Not Before: Dec 25 04:39:11 2017 GMT
            Not After : Dec 25 04:39:11 2018 GMT
        Subject: C=KR, ST=Seoul, L=Seoul, O=Alice Test Certificate, OU=Alice, CN=alice@mmlabs.nu.ac.kr/emailAddress=alice@mmlab.snu.ac.kr
        Subject Public Key Info:
            Public Key Algorithm: rsaEncryption
                Public-Key: (2048 bit)
                Modulus:
                    00:c5:87:cc:cd:26:1e:5a:9b:30:c3:ac:ad:8c:24:
                    d5:34:b9:3a:da:72:13:29:12:45:65:56:10:35:b0:
                    d5:b9:43:46:fc:09:70:4c:87:82:2c:fa:f7:11:f7:
                    70:c0:41:25:48:e2:4f:de:c3:b4:55:8e:c9:da:c4:
                    27:45:2a:e5:d2:55:ba:b4:6a:8c:a8:af:14:df:65:
                    b8:d3:da:54:04:39:e8:f8:95:6b:1a:67:6d:d2:11:
                    22:fa:86:2a:b7:d2:64:80:65:b9:63:db:54:71:b9:
                    77:12:3d:ab:bc:b3:da:1b:b6:83:ca:bf:aa:c8:5f:
                    8c:19:ce:b7:e7:2e:e6:11:07:3b:3c:62:9b:72:63:
                    f7:73:d1:11:ed:57:c9:e6:8d:1c:41:bf:b6:0b:cf:
                    26:e6:d2:84:8b:34:77:e8:96:09:c5:58:99:09:5b:
                    5b:67:b3:69:65:27:31:80:29:51:11:29:9b:13:82:
                    a4:23:72:b3:5a:f2:ba:e7:e8:7e:42:f0:78:f5:79:
                    14:b8:a4:4b:1f:5b:7b:fb:2c:a6:f2:a8:cd:a8:40:
                    a6:00:f0:da:1c:a0:be:f3:6f:5b:84:37:e6:c5:43:
                    e5:e6:99:ce:09:06:63:be:11:81:16:e4:74:3f:ce:
                    7f:3a:f0:bc:0b:a1:9c:25:52:6e:d8:16:9d:03:dc:
                    4b:a5
                Exponent: 65537 (0x10001)
        X509v3 extensions:
            X509v3 Basic Constraints: 
                CA:FALSE
            X509v3 Key Usage: 
                Digital Signature, Non Repudiation, Key Encipherment
            X509v3 Subject Alternative Name: 
                DNS:a.alice.com, DNS:b.alice.com, DNS:c.alice.com, DNS:d.alice.com, DNS:e.alice.com, DNS:f.alice.com, DNS:g.alice.com, DNS:h.alice.com, DNS:i.alice.com, DNS:j.alice.com, DNS:aa.alice.com, DNS:ab.alice.com, DNS:ac.alice.com, DNS:ad.alice.com, DNS:ae.alice.com, DNS:af.alice.com, DNS:ag.alice.com, DNS:ah.alice.com, DNS:ai.alice.com, DNS:aj.alice.com, DNS:ba.alice.com, DNS:bb.alice.com, DNS:bc.alice.com, DNS:bd.alice.com, DNS:be.alice.com, DNS:bf.alice.com, DNS:bg.alice.com, DNS:bh.alice.com, DNS:bi.alice.com, DNS:bj.alice.com, DNS:baa.alice.com, DNS:bab.alice.com, DNS:bac.alice.com, DNS:bad.alice.com, DNS:bae.alice.com, DNS:baf.alice.com, DNS:bag.alice.com, DNS:bah.alice.com, DNS:bai.alice.com, DNS:baj.alice.com, DNS:ab.alice.com, DNS:bb.alice.com, DNS:cb.alice.com, DNS:db.alice.com, DNS:eb.alice.com, DNS:fb.alice.com, DNS:gb.alice.com, DNS:hb.alice.com, DNS:ib.alice.com, DNS:jb.alice.com, DNS:aab.alice.com, DNS:abb.alice.com, DNS:acb.alice.com, DNS:adb.alice.com, DNS:aeb.alice.com, DNS:afb.alice.com, DNS:agb.alice.com, DNS:ahb.alice.com, DNS:aib.alice.com, DNS:ajb.alice.com, DNS:bab.alice.com, DNS:bbb.alice.com, DNS:bcb.alice.com, DNS:bdb.alice.com, DNS:beb.alice.com, DNS:bfb.alice.com, DNS:bgb.alice.com, DNS:bhb.alice.com, DNS:bib.alice.com, DNS:bjb.alice.com, DNS:baba.alice.com, DNS:babb.alice.com, DNS:babc.alice.com, DNS:babd.alice.com, DNS:babe.alice.com, DNS:babf.alice.com, DNS:babg.alice.com, DNS:babh.alice.com, DNS:babi.alice.com, DNS:babj.alice.com, DNS:aac.alice.com, DNS:abc.alice.com, DNS:acc.alice.com, DNS:adc.alice.com, DNS:aec.alice.com, DNS:afc.alice.com, DNS:agc.alice.com, DNS:ahc.alice.com, DNS:aic.alice.com, DNS:ajc.alice.com, DNS:bac.alice.com, DNS:bbc.alice.com, DNS:bcc.alice.com, DNS:bdc.alice.com, DNS:bec.alice.com, DNS:bfc.alice.com, DNS:bgc.alice.com, DNS:bhc.alice.com, DNS:bic.alice.com, DNS:bjc.alice.com, DNS:baac.alice.com, DNS:babc.alice.com, DNS:bacc.alice.com, DNS:badc.alice.com, DNS:baec.alice.com, DNS:bafc.alice.com, DNS:bagc.alice.com, DNS:bahc.alice.com, DNS:baic.alice.com, DNS:bajc.alice.com, DNS:abc.alice.com, DNS:bbc.alice.com, DNS:cbc.alice.com, DNS:dbc.alice.com, DNS:ebc.alice.com, DNS:fbc.alice.com, DNS:gbc.alice.com, DNS:hbc.alice.com, DNS:ibc.alice.com, DNS:jbc.alice.com, DNS:aabc.alice.com, DNS:abbc.alice.com, DNS:acbc.alice.com, DNS:adbc.alice.com, DNS:aebc.alice.com, DNS:afbc.alice.com, DNS:agbc.alice.com, DNS:ahbc.alice.com, DNS:aibc.alice.com, DNS:ajbc.alice.com, DNS:babc.alice.com, DNS:bbbc.alice.com, DNS:bcbc.alice.com, DNS:bdbc.alice.com, DNS:bebc.alice.com, DNS:bfbc.alice.com, DNS:bgbc.alice.com, DNS:bhbc.alice.com, DNS:bibc.alice.com, DNS:bjbc.alice.com, DNS:babca.alice.com, DNS:babcb.alice.com, DNS:babcc.alice.com, DNS:babcd.alice.com, DNS:babce.alice.com, DNS:babcf.alice.com, DNS:babcg.alice.com, DNS:babch.alice.com, DNS:babci.alice.com, DNS:babcj.alice.com
    Signature Algorithm: sha256WithRSAEncryption
         bd:d3:c7:a4:dc:98:7e:9c:be:23:85:6c:18:89:2b:88:7f:1d:
         5a:36:d5:2d:0d:8c:63:48:d5:28:a8:9d:cf:2e:86:8f:f2:ad:
         73:99:15:8b:32:1f:64:6f:25:3c:b6:c1:20:ee:51:73:0e:df:
         30:6c:18:ae:67:60:77:bf:16:39:e7:62:9b:0b:f5:0b:4f:39:
         83:30:d6:d8:fc:91:dd:66:3e:df:80:1f:01:5c:a3:9c:c0:f3:
         dc:5f:ef:74:b0:74:91:d6:20:d8:09:53:d1:d0:25:be:31:e8:
         c9:1e:42:b3:77:68:c3:ef:22:19:f2:70:31:f5:9b:88:d8:58:
         7a:04:63:57:ef:f4:44:48:6a:b0:29:c9:15:e7:18:da:cd:44:
         83:e5:5b:ef:cb:01:c4:02:0d:77:3f:33:fe:9f:ce:ac:bf:fd:
         ce:69:19:dd:31:68:42:80:c7:67:a6:f1:99:ac:3a:07:9e:24:
         34:21:07:fc:e6:95:99:9a:f4:49:57:dd:41:37:af:c2:3e:5d:
         e6:15:fa:19:43:6f:c1:5e:cf:73:b2:11:01:67:d2:bf:f4:15:
         4d:64:58:17:1e:b2:6d:d9:dd:89:ca:a2:d7:6b:d8:cc:59:06:
         83:68:98:ad:4c:92:a1:4d:69:53:1e:27:5a:32:86:dc:60:7e:
         14:02:b3:12
-----BEGIN CERTIFICATE-----
MIIMyzCCC7OgAwIBAgIJANkpy5tFo7uXMA0GCSqGSIb3DQEBCwUAMIGfMQswCQYD
VQQGEwJVUzETMBEGA1UECAwKQ2FsaWZvcm5pYTETMBEGA1UEBwwKQ2FsaWZvcm5p
YTEWMBQGA1UECgwNQWxpY2UgQ0EgTHRkLjEWMBQGA1UECwwNQWxpY2UgQ0EgTHRk
LjEWMBQGA1UEAwwNQWxpY2UgQ0EgTHRkLjEeMBwGCSqGSIb3DQEJARYPY2FAY2Ff
YWxpY2UuY29tMB4XDTE3MTIyNTA0MzkxMVoXDTE4MTIyNTA0MzkxMVowgaQxCzAJ
BgNVBAYTAktSMQ4wDAYDVQQIDAVTZW91bDEOMAwGA1UEBwwFU2VvdWwxHzAdBgNV
BAoMFkFsaWNlIFRlc3QgQ2VydGlmaWNhdGUxDjAMBgNVBAsMBUFsaWNlMR4wHAYD
VQQDDBVhbGljZUBtbWxhYnMubnUuYWMua3IxJDAiBgkqhkiG9w0BCQEWFWFsaWNl
QG1tbGFiLnNudS5hYy5rcjCCASIwDQYJKoZIhvcNAQEBBQADggEPADCCAQoCggEB
AMWHzM0mHlqbMMOsrYwk1TS5OtpyEykSRWVWEDWw1blDRvwJcEyHgiz69xH3cMBB
JUjiT97DtFWOydrEJ0Uq5dJVurRqjKivFN9luNPaVAQ56PiVaxpnbdIRIvqGKrfS
ZIBluWPbVHG5dxI9q7yz2hu2g8q/qshfjBnOt+cu5hEHOzxim3Jj93PREe1XyeaN
HEG/tgvPJubShIs0d+iWCcVYmQlbW2ezaWUnMYApUREpmxOCpCNys1ryuufofkLw
ePV5FLikSx9be/sspvKozahApgDw2hygvvNvW4Q35sVD5eaZzgkGY74RgRbkdD/O
fzrwvAuhnCVSbtgWnQPcS6UCAwEAAaOCCQEwggj9MAkGA1UdEwQCMAAwCwYDVR0P
BAQDAgXgMIII4QYDVR0RBIII2DCCCNSCC2EuYWxpY2UuY29tggtiLmFsaWNlLmNv
bYILYy5hbGljZS5jb22CC2QuYWxpY2UuY29tggtlLmFsaWNlLmNvbYILZi5hbGlj
ZS5jb22CC2cuYWxpY2UuY29tggtoLmFsaWNlLmNvbYILaS5hbGljZS5jb22CC2ou
YWxpY2UuY29tggxhYS5hbGljZS5jb22CDGFiLmFsaWNlLmNvbYIMYWMuYWxpY2Uu
Y29tggxhZC5hbGljZS5jb22CDGFlLmFsaWNlLmNvbYIMYWYuYWxpY2UuY29tggxh
Zy5hbGljZS5jb22CDGFoLmFsaWNlLmNvbYIMYWkuYWxpY2UuY29tggxhai5hbGlj
ZS5jb22CDGJhLmFsaWNlLmNvbYIMYmIuYWxpY2UuY29tggxiYy5hbGljZS5jb22C
DGJkLmFsaWNlLmNvbYIMYmUuYWxpY2UuY29tggxiZi5hbGljZS5jb22CDGJnLmFs
aWNlLmNvbYIMYmguYWxpY2UuY29tggxiaS5hbGljZS5jb22CDGJqLmFsaWNlLmNv
bYINYmFhLmFsaWNlLmNvbYINYmFiLmFsaWNlLmNvbYINYmFjLmFsaWNlLmNvbYIN
YmFkLmFsaWNlLmNvbYINYmFlLmFsaWNlLmNvbYINYmFmLmFsaWNlLmNvbYINYmFn
LmFsaWNlLmNvbYINYmFoLmFsaWNlLmNvbYINYmFpLmFsaWNlLmNvbYINYmFqLmFs
aWNlLmNvbYIMYWIuYWxpY2UuY29tggxiYi5hbGljZS5jb22CDGNiLmFsaWNlLmNv
bYIMZGIuYWxpY2UuY29tggxlYi5hbGljZS5jb22CDGZiLmFsaWNlLmNvbYIMZ2Iu
YWxpY2UuY29tggxoYi5hbGljZS5jb22CDGliLmFsaWNlLmNvbYIMamIuYWxpY2Uu
Y29tgg1hYWIuYWxpY2UuY29tgg1hYmIuYWxpY2UuY29tgg1hY2IuYWxpY2UuY29t
gg1hZGIuYWxpY2UuY29tgg1hZWIuYWxpY2UuY29tgg1hZmIuYWxpY2UuY29tgg1h
Z2IuYWxpY2UuY29tgg1haGIuYWxpY2UuY29tgg1haWIuYWxpY2UuY29tgg1hamIu
YWxpY2UuY29tgg1iYWIuYWxpY2UuY29tgg1iYmIuYWxpY2UuY29tgg1iY2IuYWxp
Y2UuY29tgg1iZGIuYWxpY2UuY29tgg1iZWIuYWxpY2UuY29tgg1iZmIuYWxpY2Uu
Y29tgg1iZ2IuYWxpY2UuY29tgg1iaGIuYWxpY2UuY29tgg1iaWIuYWxpY2UuY29t
gg1iamIuYWxpY2UuY29tgg5iYWJhLmFsaWNlLmNvbYIOYmFiYi5hbGljZS5jb22C
DmJhYmMuYWxpY2UuY29tgg5iYWJkLmFsaWNlLmNvbYIOYmFiZS5hbGljZS5jb22C
DmJhYmYuYWxpY2UuY29tgg5iYWJnLmFsaWNlLmNvbYIOYmFiaC5hbGljZS5jb22C
DmJhYmkuYWxpY2UuY29tgg5iYWJqLmFsaWNlLmNvbYINYWFjLmFsaWNlLmNvbYIN
YWJjLmFsaWNlLmNvbYINYWNjLmFsaWNlLmNvbYINYWRjLmFsaWNlLmNvbYINYWVj
LmFsaWNlLmNvbYINYWZjLmFsaWNlLmNvbYINYWdjLmFsaWNlLmNvbYINYWhjLmFs
aWNlLmNvbYINYWljLmFsaWNlLmNvbYINYWpjLmFsaWNlLmNvbYINYmFjLmFsaWNl
LmNvbYINYmJjLmFsaWNlLmNvbYINYmNjLmFsaWNlLmNvbYINYmRjLmFsaWNlLmNv
bYINYmVjLmFsaWNlLmNvbYINYmZjLmFsaWNlLmNvbYINYmdjLmFsaWNlLmNvbYIN
YmhjLmFsaWNlLmNvbYINYmljLmFsaWNlLmNvbYINYmpjLmFsaWNlLmNvbYIOYmFh
Yy5hbGljZS5jb22CDmJhYmMuYWxpY2UuY29tgg5iYWNjLmFsaWNlLmNvbYIOYmFk
Yy5hbGljZS5jb22CDmJhZWMuYWxpY2UuY29tgg5iYWZjLmFsaWNlLmNvbYIOYmFn
Yy5hbGljZS5jb22CDmJhaGMuYWxpY2UuY29tgg5iYWljLmFsaWNlLmNvbYIOYmFq
Yy5hbGljZS5jb22CDWFiYy5hbGljZS5jb22CDWJiYy5hbGljZS5jb22CDWNiYy5h
bGljZS5jb22CDWRiYy5hbGljZS5jb22CDWViYy5hbGljZS5jb22CDWZiYy5hbGlj
ZS5jb22CDWdiYy5hbGljZS5jb22CDWhiYy5hbGljZS5jb22CDWliYy5hbGljZS5j
b22CDWpiYy5hbGljZS5jb22CDmFhYmMuYWxpY2UuY29tgg5hYmJjLmFsaWNlLmNv
bYIOYWNiYy5hbGljZS5jb22CDmFkYmMuYWxpY2UuY29tgg5hZWJjLmFsaWNlLmNv
bYIOYWZiYy5hbGljZS5jb22CDmFnYmMuYWxpY2UuY29tgg5haGJjLmFsaWNlLmNv
bYIOYWliYy5hbGljZS5jb22CDmFqYmMuYWxpY2UuY29tgg5iYWJjLmFsaWNlLmNv
bYIOYmJiYy5hbGljZS5jb22CDmJjYmMuYWxpY2UuY29tgg5iZGJjLmFsaWNlLmNv
bYIOYmViYy5hbGljZS5jb22CDmJmYmMuYWxpY2UuY29tgg5iZ2JjLmFsaWNlLmNv
bYIOYmhiYy5hbGljZS5jb22CDmJpYmMuYWxpY2UuY29tgg5iamJjLmFsaWNlLmNv
bYIPYmFiY2EuYWxpY2UuY29tgg9iYWJjYi5hbGljZS5jb22CD2JhYmNjLmFsaWNl
LmNvbYIPYmFiY2QuYWxpY2UuY29tgg9iYWJjZS5hbGljZS5jb22CD2JhYmNmLmFs
aWNlLmNvbYIPYmFiY2cuYWxpY2UuY29tgg9iYWJjaC5hbGljZS5jb22CD2JhYmNp
LmFsaWNlLmNvbYIPYmFiY2ouYWxpY2UuY29tMA0GCSqGSIb3DQEBCwUAA4IBAQC9
08ek3Jh+nL4jhWwYiSuIfx1aNtUtDYxjSNUoqJ3PLoaP8q1zmRWLMh9kbyU8tsEg
7lFzDt8wbBiuZ2B3vxY552KbC/ULTzmDMNbY/JHdZj7fgB8BXKOcwPPcX+90sHSR
1iDYCVPR0CW+MejJHkKzd2jD7yIZ8nAx9ZuI2Fh6BGNX7/RESGqwKckV5xjazUSD
5VvvywHEAg13PzP+n86sv/3OaRndMWhCgMdnpvGZrDoHniQ0IQf85pWZmvRJV91B
N6/CPl3mFfoZQ2/BXs9zshEBZ9K/9BVNZFgXHrJt2d2JyqLXa9jMWQaDaJitTJKh
TWlTHidaMobcYH4UArMS
-----END CERTIFICATE-----
