Certificate:
    Data:
        Version: 3 (0x2)
        Serial Number:
            d9:29:cb:9b:45:a3:bb:92
    Signature Algorithm: sha256WithRSAEncryption
        Issuer: C=US, ST=California, L=California, O=Alice CA Ltd., OU=Alice CA Ltd., CN=Alice CA Ltd./emailAddress=ca@ca_alice.com
        Validity
            Not Before: Dec 20 01:13:05 2017 GMT
            Not After : Dec 20 01:13:05 2018 GMT
        Subject: C=KR, ST=Seoul, L=Seoul, O=SNU, OU=MMLAB, CN=Alice Test Company and Ltd to Test this Experiment/emailAddress=test_experiment@alice.mail.corporation.com
        Subject Public Key Info:
            Public Key Algorithm: rsaEncryption
                Public-Key: (4096 bit)
                Modulus:
                    00:c0:f4:63:09:4b:34:5d:cb:fe:6b:b7:62:41:28:
                    bd:f9:17:b8:a2:73:af:a0:4e:a6:c0:d2:dc:c7:a4:
                    ee:7f:14:b5:b5:b9:31:95:9f:e9:d1:69:f8:32:b7:
                    76:cb:0a:b5:85:d2:b9:05:f2:0a:e6:50:a9:00:0f:
                    63:f5:82:24:95:e7:69:ab:9f:d5:b2:dd:e2:b3:f0:
                    ca:66:95:bd:e4:55:34:33:81:e0:ec:3a:6f:d0:7f:
                    fd:07:ba:d4:94:08:51:53:56:be:82:98:fa:5c:67:
                    d3:1d:ad:f7:cf:07:21:00:13:78:4d:90:2e:ef:7f:
                    bf:6d:e4:24:56:0c:ed:45:aa:ee:81:56:45:aa:ec:
                    28:84:d5:2b:40:ec:9d:2a:f7:d8:00:79:dc:ef:29:
                    cb:8a:19:f0:c1:48:11:b2:85:77:c1:aa:1a:2c:a3:
                    22:0e:8e:07:a5:3b:c4:e4:76:51:2b:16:aa:d8:19:
                    94:58:9c:01:68:f2:38:98:28:b1:e6:50:ca:42:dc:
                    bc:c5:be:e5:0f:e3:06:dc:1f:0a:6d:3f:59:78:48:
                    69:eb:3b:62:61:65:26:33:88:d8:83:fb:bb:af:58:
                    a9:06:73:6b:61:2f:f7:0d:76:39:b3:36:57:f9:0f:
                    ce:fd:04:5f:4e:a7:ae:11:4f:24:57:ff:36:fa:75:
                    a7:b0:7c:c0:87:42:75:82:35:45:d7:d3:a8:d2:ce:
                    49:ea:77:de:0e:48:4f:91:84:6b:2c:bd:68:13:53:
                    c1:95:d8:ef:c3:00:b0:16:a2:3a:1e:c6:6d:58:99:
                    12:b5:3d:1c:16:e3:15:c5:f8:8b:6c:03:27:c5:f3:
                    4a:e6:f5:2f:e0:29:13:26:e7:3b:1d:6d:6c:70:fc:
                    aa:a3:1f:87:7d:98:a4:e1:f9:c2:48:c0:62:7b:a6:
                    07:0d:2f:33:25:0e:2b:39:b7:e9:f6:11:c3:45:fe:
                    3c:23:c3:c7:69:f2:38:f4:a6:4e:18:22:66:a2:b2:
                    e5:3c:bb:67:7f:2c:4a:2c:7f:39:3d:6f:49:f7:ae:
                    69:ca:c7:9d:03:27:0c:1c:38:2c:79:28:0a:3b:53:
                    74:ee:ad:b0:a9:a2:97:c1:50:66:27:0a:59:3d:83:
                    90:7d:d0:50:9b:91:67:b6:78:d6:ab:a4:35:e2:e8:
                    90:b8:d9:2c:15:b5:41:3f:e4:58:99:a1:6d:f5:cc:
                    63:a0:42:0e:bd:89:44:8c:72:ea:a1:99:9c:8f:96:
                    60:49:d2:b0:d4:f2:5b:0e:67:a5:75:a5:59:22:5f:
                    dc:44:29:34:40:dc:76:6e:36:3d:8c:ab:6d:7d:6e:
                    90:28:08:fe:b1:1e:2a:df:81:c4:49:bd:a0:a7:98:
                    bc:e9:f1
                Exponent: 65537 (0x10001)
        X509v3 extensions:
            X509v3 Basic Constraints: 
                CA:FALSE
            Netscape Comment: 
                OpenSSL Generated Certificate
            X509v3 Subject Key Identifier: 
                80:08:D4:34:94:C4:37:96:82:24:B5:00:06:A7:A5:02:CE:00:22:17
            X509v3 Authority Key Identifier: 
                keyid:97:84:38:61:DE:68:95:28:5B:E6:83:56:76:5D:3F:1F:CB:C8:61:70

    Signature Algorithm: sha256WithRSAEncryption
         a7:c7:b5:29:8d:b0:85:fb:58:49:47:ea:e0:d7:da:2e:ef:85:
         6b:f7:c2:b6:42:f8:ef:c0:4c:e8:80:05:74:38:9a:86:9d:4f:
         83:e9:8f:f6:0c:19:74:b7:f9:63:40:2a:8b:42:1d:d5:96:34:
         6e:08:30:39:3a:d9:a6:94:d9:6c:54:72:ec:4d:7f:be:9d:94:
         84:d0:1b:d6:38:6e:26:62:d7:37:4e:a2:d6:71:b1:76:6a:00:
         f0:3c:b5:5d:e5:95:58:2f:ce:8b:dc:ae:b6:b9:20:a6:0d:71:
         0e:ca:66:00:9d:c5:f4:8c:86:ff:ac:04:8a:dd:72:9b:cb:34:
         26:d8:d4:97:a1:14:c3:0e:65:26:9c:86:22:a2:fd:b4:64:6e:
         ba:93:f5:3e:b4:b1:78:77:69:ac:8e:38:67:84:8a:3e:34:d0:
         68:de:85:78:b7:37:1a:28:8d:fc:1b:13:14:43:7c:86:de:91:
         79:aa:1d:9a:b5:96:6c:82:d0:70:cd:c7:c1:6d:29:01:e8:97:
         17:99:a5:5e:0b:ef:95:9c:cf:11:90:1f:97:63:fd:17:b6:b7:
         14:4c:94:44:65:9e:7c:a4:bc:09:b0:2b:c0:e0:ff:dd:6e:91:
         c3:ee:75:c2:66:60:36:05:cc:d3:1e:53:c1:1b:63:01:4d:24:
         a6:6e:bd:db
-----BEGIN CERTIFICATE-----
MIIFYjCCBEqgAwIBAgIJANkpy5tFo7uSMA0GCSqGSIb3DQEBCwUAMIGfMQswCQYD
VQQGEwJVUzETMBEGA1UECAwKQ2FsaWZvcm5pYTETMBEGA1UEBwwKQ2FsaWZvcm5p
YTEWMBQGA1UECgwNQWxpY2UgQ0EgTHRkLjEWMBQGA1UECwwNQWxpY2UgQ0EgTHRk
LjEWMBQGA1UEAwwNQWxpY2UgQ0EgTHRkLjEeMBwGCSqGSIb3DQEJARYPY2FAY2Ff
YWxpY2UuY29tMB4XDTE3MTIyMDAxMTMwNVoXDTE4MTIyMDAxMTMwNVowgcMxCzAJ
BgNVBAYTAktSMQ4wDAYDVQQIDAVTZW91bDEOMAwGA1UEBwwFU2VvdWwxDDAKBgNV
BAoMA1NOVTEOMAwGA1UECwwFTU1MQUIxOzA5BgNVBAMMMkFsaWNlIFRlc3QgQ29t
cGFueSBhbmQgTHRkIHRvIFRlc3QgdGhpcyBFeHBlcmltZW50MTkwNwYJKoZIhvcN
AQkBFip0ZXN0X2V4cGVyaW1lbnRAYWxpY2UubWFpbC5jb3Jwb3JhdGlvbi5jb20w
ggIiMA0GCSqGSIb3DQEBAQUAA4ICDwAwggIKAoICAQDA9GMJSzRdy/5rt2JBKL35
F7iic6+gTqbA0tzHpO5/FLW1uTGVn+nRafgyt3bLCrWF0rkF8grmUKkAD2P1giSV
52mrn9Wy3eKz8Mpmlb3kVTQzgeDsOm/Qf/0HutSUCFFTVr6CmPpcZ9MdrffPByEA
E3hNkC7vf79t5CRWDO1Fqu6BVkWq7CiE1StA7J0q99gAedzvKcuKGfDBSBGyhXfB
qhosoyIOjgelO8TkdlErFqrYGZRYnAFo8jiYKLHmUMpC3LzFvuUP4wbcHwptP1l4
SGnrO2JhZSYziNiD+7uvWKkGc2thL/cNdjmzNlf5D879BF9Op64RTyRX/zb6daew
fMCHQnWCNUXX06jSzknqd94OSE+RhGssvWgTU8GV2O/DALAWojoexm1YmRK1PRwW
4xXF+ItsAyfF80rm9S/gKRMm5zsdbWxw/KqjH4d9mKTh+cJIwGJ7pgcNLzMlDis5
t+n2EcNF/jwjw8dp8jj0pk4YImaisuU8u2d/LEosfzk9b0n3rmnKx50DJwwcOCx5
KAo7U3TurbCpopfBUGYnClk9g5B90FCbkWe2eNarpDXi6JC42SwVtUE/5FiZoW31
zGOgQg69iUSMcuqhmZyPlmBJ0rDU8lsOZ6V1pVkiX9xEKTRA3HZuNj2Mq219bpAo
CP6xHirfgcRJvaCnmLzp8QIDAQABo3sweTAJBgNVHRMEAjAAMCwGCWCGSAGG+EIB
DQQfFh1PcGVuU1NMIEdlbmVyYXRlZCBDZXJ0aWZpY2F0ZTAdBgNVHQ4EFgQUgAjU
NJTEN5aCJLUABqelAs4AIhcwHwYDVR0jBBgwFoAUl4Q4Yd5olShb5oNWdl0/H8vI
YXAwDQYJKoZIhvcNAQELBQADggEBAKfHtSmNsIX7WElH6uDX2i7vhWv3wrZC+O/A
TOiABXQ4moadT4Ppj/YMGXS3+WNAKotCHdWWNG4IMDk62aaU2WxUcuxNf76dlITQ
G9Y4biZi1zdOotZxsXZqAPA8tV3llVgvzovcrra5IKYNcQ7KZgCdxfSMhv+sBIrd
cpvLNCbY1JehFMMOZSachiKi/bRkbrqT9T60sXh3aayOOGeEij400GjehXi3Nxoo
jfwbExRDfIbekXmqHZq1lmyC0HDNx8FtKQHolxeZpV4L75WczxGQH5dj/Re2txRM
lERlnnykvAmwK8Dg/91ukcPudcJmYDYFzNMeU8EbYwFNJKZuvds=
-----END CERTIFICATE-----
