Certificate:
    Data:
        Version: 3 (0x2)
        Serial Number:
            d9:29:cb:9b:45:a3:bb:93
    Signature Algorithm: sha256WithRSAEncryption
        Issuer: C=US, ST=California, L=California, O=Alice CA Ltd., OU=Alice CA Ltd., CN=Alice CA Ltd./emailAddress=ca@ca_alice.com
        Validity
            Not Before: Dec 20 01:15:34 2017 GMT
            Not After : Dec 20 01:15:34 2018 GMT
        Subject: C=KR, ST=Seoul, L=Seoul, O=SNU, OU=MMLAB, CN=Alice Corporation Test for the Experiment/emailAddress=alice.mail.test.corporation.com
        Subject Public Key Info:
            Public Key Algorithm: rsaEncryption
                Public-Key: (4096 bit)
                Modulus:
                    00:c1:78:02:84:f5:93:50:56:0e:32:20:9a:76:a3:
                    f3:f8:9f:ca:82:ea:74:12:7f:a9:19:e6:2a:0b:a7:
                    30:6d:8b:bc:a3:44:bc:57:7c:f2:c6:6a:92:fc:fe:
                    ab:c3:07:03:2f:37:36:31:ca:ed:1a:5e:a3:46:83:
                    15:f5:6a:09:fe:ed:d6:d4:f9:3f:d8:96:f7:b5:fd:
                    3e:a2:3e:e1:e4:78:59:00:a4:6c:4f:d6:93:96:78:
                    17:a4:23:62:3c:7b:7f:64:49:86:2e:9f:a9:a2:2d:
                    59:ee:b9:b9:a4:c4:06:b9:75:a2:80:ad:76:f7:6c:
                    d3:66:cb:e0:4d:9a:72:4d:bb:a9:b2:e1:f8:59:aa:
                    55:c5:4e:24:04:88:c0:41:68:ca:ca:c3:7f:9a:d2:
                    3f:bc:ca:d6:1e:54:ba:bb:ca:1a:06:b8:81:ad:75:
                    b0:88:72:00:10:19:59:e0:96:9a:a9:fa:0f:1e:0b:
                    79:47:72:98:e8:33:2d:19:65:99:73:04:6b:3f:30:
                    18:a3:d2:2d:c6:47:b7:71:3a:1a:1c:05:db:c2:3d:
                    5b:80:a4:d3:6e:60:79:bd:32:5a:5f:9f:fb:75:1b:
                    0f:91:b2:a6:60:9d:70:27:37:b3:4d:a1:e2:30:b2:
                    29:08:5c:0e:65:70:57:f6:04:a2:85:bc:78:c1:1a:
                    d1:cc:4d:f4:d4:b1:ac:f6:da:a3:2b:74:92:45:7e:
                    23:86:fb:6b:9d:ca:48:89:ad:ce:ac:15:0a:65:65:
                    0b:4e:a8:96:da:51:cb:a8:a7:1c:f2:2c:52:86:d0:
                    ec:c0:a8:56:76:af:7f:f4:fb:4c:50:2c:92:19:e7:
                    f5:fb:a7:2a:bb:f4:be:8b:28:d2:3b:3b:a3:ed:73:
                    7a:6d:f2:d3:3e:12:f7:53:65:37:d0:de:f2:88:0a:
                    fa:1d:36:7d:76:c5:78:ec:1a:a7:8b:51:46:b1:15:
                    ea:e2:6e:e3:4a:a0:16:ae:30:96:61:8f:ca:10:5e:
                    45:32:1f:2e:bb:35:7f:eb:1a:90:6d:e0:18:68:7c:
                    e4:3a:2d:6d:95:ed:33:36:ef:03:e3:48:f1:eb:52:
                    50:a8:be:80:a0:0e:d3:e8:1e:cb:05:91:8f:30:ab:
                    a9:8e:a7:9a:17:00:07:e8:fa:c7:a7:07:4f:e2:d9:
                    4f:d1:f4:8f:b6:41:e6:0a:4b:6c:86:c7:66:06:f3:
                    56:7c:4c:f1:53:50:4b:7a:db:92:af:dd:56:84:ee:
                    56:f7:d1:d8:03:96:4f:25:3e:b3:29:a4:90:34:55:
                    8e:32:81:ee:09:2f:58:32:87:22:ae:ef:35:c8:00:
                    e3:5e:33:d4:8b:98:0e:b0:50:a7:eb:ad:9d:5b:d0:
                    90:06:c7
                Exponent: 65537 (0x10001)
        X509v3 extensions:
            X509v3 Basic Constraints: 
                CA:FALSE
            X509v3 Key Usage: 
                Digital Signature, Non Repudiation, Key Encipherment
            X509v3 Subject Alternative Name: 
                DNS:a.alice.com, DNS:aa.bob.com, DNS:*.carol.com, DNS:*.david.com, DNS:kk.eve.com, DNS:*.felica.com, DNS:*.god.com, DNS:*.have.com, DNS:*.ioha.com, DNS:mm.jitter.com, DNS:*.key.com, DNS:*.lemon.com, DNS:*.man.com, DNS:*.nest.com, DNS:test.odd.com, DNS:*.panic.com, DNS:www.quizlet.com, DNS:alice.com, DNS:www.alice.com, DNS:www.alice.co.kr, DNS:k.alice.co.pe, DNS:m.bob.co.uk, DNS:n.david.org, DNS:o.david.or.kr, DNS:p.next.io, DNS:abklfjlaknd.djfliehaolfihlknvcf.woqiero.ab, DNS:popoelrkdafnfkdjrwqkrwerhjnfsd.wherioweuyhriou23.13498dafefh.com, DNS:poqwetprlknvkjbkjdthfkje.uihhdjkbf.jerlqiwhr.wqherhdjkhf.org, DNS:abc.abc.com, DNS:xyz.xyz.ac.kr, DNS:abd.ac.uk, DNS:cache.ch, DNS:alice.fr, DNS:*.alice.cm, DNS:*.alice.pm, DNS:*.alice.ht
    Signature Algorithm: sha256WithRSAEncryption
         93:40:ed:a6:2f:dc:01:50:47:9c:5a:e3:00:fc:c6:eb:b4:86:
         38:06:5d:b9:cd:59:36:8d:e4:4b:56:46:b5:78:d0:62:5b:d6:
         f7:6c:60:50:48:7e:5e:67:7c:fb:a0:4f:94:4f:ba:a3:79:69:
         3c:a3:b1:19:ef:c7:52:f3:f6:9b:6e:9e:71:43:89:c0:92:04:
         1a:af:70:d3:41:6b:a3:66:00:c0:92:cd:d5:19:24:2a:7c:e5:
         d9:b0:aa:09:84:01:35:52:60:24:01:23:03:6b:4b:69:af:7d:
         76:a2:b3:2c:99:2c:72:02:41:a8:bd:06:bc:ba:91:2d:f9:de:
         76:b2:c3:52:7c:c3:e8:5e:28:8d:82:2a:2e:af:25:c4:68:39:
         00:9b:4b:91:e5:b6:ce:ef:7d:80:24:b9:a6:40:17:c1:e2:fe:
         3d:e8:8f:3b:4a:2e:e5:9e:fa:82:19:91:b3:2f:f0:a4:d3:9f:
         c2:03:06:34:85:97:e0:a6:5d:1d:3f:94:45:29:57:a2:a6:55:
         71:d1:6b:bd:f7:5a:f9:ae:0c:a2:61:7e:57:10:96:a2:43:01:
         55:9a:a4:8d:28:fb:eb:11:b3:04:d3:c1:bc:2d:61:8d:12:c3:
         16:1e:66:2d:9a:a8:f6:82:4b:1f:c8:22:39:b2:1e:6b:a7:75:
         6a:ac:af:f8
-----BEGIN CERTIFICATE-----
MIIHVTCCBj2gAwIBAgIJANkpy5tFo7uTMA0GCSqGSIb3DQEBCwUAMIGfMQswCQYD
VQQGEwJVUzETMBEGA1UECAwKQ2FsaWZvcm5pYTETMBEGA1UEBwwKQ2FsaWZvcm5p
YTEWMBQGA1UECgwNQWxpY2UgQ0EgTHRkLjEWMBQGA1UECwwNQWxpY2UgQ0EgTHRk
LjEWMBQGA1UEAwwNQWxpY2UgQ0EgTHRkLjEeMBwGCSqGSIb3DQEJARYPY2FAY2Ff
YWxpY2UuY29tMB4XDTE3MTIyMDAxMTUzNFoXDTE4MTIyMDAxMTUzNFowga8xCzAJ
BgNVBAYTAktSMQ4wDAYDVQQIDAVTZW91bDEOMAwGA1UEBwwFU2VvdWwxDDAKBgNV
BAoMA1NOVTEOMAwGA1UECwwFTU1MQUIxMjAwBgNVBAMMKUFsaWNlIENvcnBvcmF0
aW9uIFRlc3QgZm9yIHRoZSBFeHBlcmltZW50MS4wLAYJKoZIhvcNAQkBFh9hbGlj
ZS5tYWlsLnRlc3QuY29ycG9yYXRpb24uY29tMIICIjANBgkqhkiG9w0BAQEFAAOC
Ag8AMIICCgKCAgEAwXgChPWTUFYOMiCadqPz+J/Kgup0En+pGeYqC6cwbYu8o0S8
V3zyxmqS/P6rwwcDLzc2McrtGl6jRoMV9WoJ/u3W1Pk/2Jb3tf0+oj7h5HhZAKRs
T9aTlngXpCNiPHt/ZEmGLp+poi1Z7rm5pMQGuXWigK1292zTZsvgTZpyTbupsuH4
WapVxU4kBIjAQWjKysN/mtI/vMrWHlS6u8oaBriBrXWwiHIAEBlZ4JaaqfoPHgt5
R3KY6DMtGWWZcwRrPzAYo9Itxke3cToaHAXbwj1bgKTTbmB5vTJaX5/7dRsPkbKm
YJ1wJzezTaHiMLIpCFwOZXBX9gSihbx4wRrRzE301LGs9tqjK3SSRX4jhvtrncpI
ia3OrBUKZWULTqiW2lHLqKcc8ixShtDswKhWdq9/9PtMUCySGef1+6cqu/S+iyjS
Ozuj7XN6bfLTPhL3U2U30N7yiAr6HTZ9dsV47Bqni1FGsRXq4m7jSqAWrjCWYY/K
EF5FMh8uuzV/6xqQbeAYaHzkOi1tle0zNu8D40jx61JQqL6AoA7T6B7LBZGPMKup
jqeaFwAH6PrHpwdP4tlP0fSPtkHmCktshsdmBvNWfEzxU1BLetuSr91WhO5W99HY
A5ZPJT6zKaSQNFWOMoHuCS9YMociru81yADjXjPUi5gOsFCn662dW9CQBscCAwEA
AaOCAoAwggJ8MAkGA1UdEwQCMAAwCwYDVR0PBAQDAgXgMIICYAYDVR0RBIICVzCC
AlOCC2EuYWxpY2UuY29tggphYS5ib2IuY29tggsqLmNhcm9sLmNvbYILKi5kYXZp
ZC5jb22CCmtrLmV2ZS5jb22CDCouZmVsaWNhLmNvbYIJKi5nb2QuY29tggoqLmhh
dmUuY29tggoqLmlvaGEuY29tgg1tbS5qaXR0ZXIuY29tggkqLmtleS5jb22CCyou
bGVtb24uY29tggkqLm1hbi5jb22CCioubmVzdC5jb22CDHRlc3Qub2RkLmNvbYIL
Ki5wYW5pYy5jb22CD3d3dy5xdWl6bGV0LmNvbYIJYWxpY2UuY29tgg13d3cuYWxp
Y2UuY29tgg93d3cuYWxpY2UuY28ua3KCDWsuYWxpY2UuY28ucGWCC20uYm9iLmNv
LnVrggtuLmRhdmlkLm9yZ4INby5kYXZpZC5vci5rcoIJcC5uZXh0LmlvgiphYmts
ZmpsYWtuZC5kamZsaWVoYW9sZmlobGtudmNmLndvcWllcm8uYWKCQHBvcG9lbHJr
ZGFmbmZrZGpyd3FrcndlcmhqbmZzZC53aGVyaW93ZXV5aHJpb3UyMy4xMzQ5OGRh
ZmVmaC5jb22CPHBvcXdldHBybGtudmtqYmtqZHRoZmtqZS51aWhoZGprYmYuamVy
bHFpd2hyLndxaGVyaGRqa2hmLm9yZ4ILYWJjLmFiYy5jb22CDXh5ei54eXouYWMu
a3KCCWFiZC5hYy51a4IIY2FjaGUuY2iCCGFsaWNlLmZyggoqLmFsaWNlLmNtggoq
LmFsaWNlLnBtggoqLmFsaWNlLmh0MA0GCSqGSIb3DQEBCwUAA4IBAQCTQO2mL9wB
UEecWuMA/MbrtIY4Bl25zVk2jeRLVka1eNBiW9b3bGBQSH5eZ3z7oE+UT7qjeWk8
o7EZ78dS8/abbp5xQ4nAkgQar3DTQWujZgDAks3VGSQqfOXZsKoJhAE1UmAkASMD
a0tpr312orMsmSxyAkGovQa8upEt+d52ssNSfMPoXiiNgiouryXEaDkAm0uR5bbO
732AJLmmQBfB4v496I87Si7lnvqCGZGzL/Ck05/CAwY0hZfgpl0dP5RFKVeiplVx
0Wu991r5rgyiYX5XEJaiQwFVmqSNKPvrEbME08G8LWGNEsMWHmYtmqj2gksfyCI5
sh5rp3VqrK/4
-----END CERTIFICATE-----
